###############################################################################
#                                                                             #
# IAR C/C++ Compiler V8.20.2.41139 for 8051             29/Apr/2018  10:27:48 #
# Copyright 2004-2013 IAR Systems AB.                                         #
#                                                                             #
#    Core               =  plain                                              #
#    Code model         =  banked                                             #
#    Data model         =  large                                              #
#    Calling convention =  xdata reentrant                                    #
#    Constant location  =  data_rom                                           #
#    Dptr setup         =  1,16                                               #
#                                                                             #
#    Source file        =  D:\zigbee\±ÏÉè\lzq\Terminal\Components\hal\common\ #
#                          hal_drivers.c                                      #
#    Command line       =  -f D:\zigbee\±ÏÉè\lzq\Terminal\Projects\zstack\Sam #
#                          ples\SampleApp\CC2530DB\..\..\..\Tools\CC2530DB\f8 #
#                          wEndev.cfg (-DCPU32MHZ -DROOT=__near_func          #
#                          -DMAC_CFG_TX_DATA_MAX=3 -DMAC_CFG_TX_MAX=6         #
#                          -DMAC_CFG_RX_MAX=3) -f D:\zigbee\±ÏÉè\lzq\Terminal #
#                          \Projects\zstack\Samples\SampleApp\CC2530DB\..\..\ #
#                          ..\Tools\CC2530DB\f8wConfig.cfg (-DZIGBEEPRO       #
#                          -DSECURE=0 -DZG_SECURE_DYNAMIC=0 -DREFLECTOR       #
#                          -DDEFAULT_CHANLIST=0x00000800                      #
#                          -DZDAPP_CONFIG_PAN_ID=0xFFF1                       #
#                          -DNWK_START_DELAY=100 -DEXTENDED_JOINING_RANDOM_MA #
#                          SK=0x007F -DBEACON_REQUEST_DELAY=100               #
#                          -DBEACON_REQ_DELAY_MASK=0x00FF                     #
#                          -DLINK_STATUS_JITTER_MASK=0x007F                   #
#                          -DROUTE_EXPIRY_TIME=30 -DAPSC_ACK_WAIT_DURATION_PO #
#                          LLED=3000 -DNWK_INDIRECT_MSG_TIMEOUT=7             #
#                          -DMAX_RREQ_ENTRIES=8 -DAPSC_MAX_FRAME_RETRIES=3    #
#                          -DNWK_MAX_DATA_RETRIES=2                           #
#                          -DMAX_POLL_FAILURE_RETRIES=2 -DMAX_BCAST=9         #
#                          -DAPS_MAX_GROUPS=16 -DMAX_RTG_ENTRIES=40           #
#                          -DNWK_MAX_BINDING_ENTRIES=4                        #
#                          -DMAX_BINDING_CLUSTER_IDS=4 "-DDEFAULT_KEY={0x01,  #
#                          0x03, 0x05, 0x07, 0x09, 0x0B, 0x0D, 0x0F, 0x00,    #
#                          0x02, 0x04, 0x06, 0x08, 0x0A, 0x0C, 0x0D}"         #
#                          -DMAC_MAX_FRAME_SIZE=116                           #
#                          -DZDNWKMGR_MIN_TRANSMISSIONS=20 "-DCONST=const     #
#                          __code" -DGENERIC=__generic                        #
#                          -DRFD_RCVC_ALWAYS_ON=FALSE -DPOLL_RATE=1000        #
#                          -DQUEUED_POLL_RATE=100 -DRESPONSE_POLL_RATE=100)   #
#                          -DREJOIN_POLL_RATE=440 D:\zigbee\±ÏÉè\lzq\Terminal #
#                          \Components\hal\common\hal_drivers.c -D            #
#                          NWK_AUTO_POLL -D ZTOOL_P1 -D MT_TASK -D            #
#                          MT_SYS_FUNC -D MT_ZDO_FUNC -D                      #
#                          xLCD_SUPPORTED=DEBUG -lC                           #
#                          D:\zigbee\±ÏÉè\lzq\Terminal\Projects\zstack\Sample #
#                          s\SampleApp\CC2530DB\EndDeviceEB\List\ -lA         #
#                          D:\zigbee\±ÏÉè\lzq\Terminal\Projects\zstack\Sample #
#                          s\SampleApp\CC2530DB\EndDeviceEB\List\             #
#                          --diag_suppress Pe001,Pa010 -o                     #
#                          D:\zigbee\±ÏÉè\lzq\Terminal\Projects\zstack\Sample #
#                          s\SampleApp\CC2530DB\EndDeviceEB\Obj\ -e           #
#                          --no_code_motion --debug --core=plain --dptr=16,1  #
#                          --data_model=large --code_model=banked             #
#                          --calling_convention=xdata_reentrant               #
#                          --place_constants=data_rom --nr_virtual_regs 16    #
#                          -I D:\zigbee\±ÏÉè\lzq\Terminal\Projects\zstack\Sam #
#                          ples\SampleApp\CC2530DB\ -I                        #
#                          D:\zigbee\±ÏÉè\lzq\Terminal\Projects\zstack\Sample #
#                          s\SampleApp\CC2530DB\..\Source\ -I                 #
#                          D:\zigbee\±ÏÉè\lzq\Terminal\Projects\zstack\Sample #
#                          s\SampleApp\CC2530DB\..\..\..\ZMain\TI2530DB\ -I   #
#                          D:\zigbee\±ÏÉè\lzq\Terminal\Projects\zstack\Sample #
#                          s\SampleApp\CC2530DB\..\..\..\..\..\Components\hal #
#                          \include\ -I D:\zigbee\±ÏÉè\lzq\Terminal\Projects\ #
#                          zstack\Samples\SampleApp\CC2530DB\..\..\..\..\..\C #
#                          omponents\hal\target\CC2530EB\ -I                  #
#                          D:\zigbee\±ÏÉè\lzq\Terminal\Projects\zstack\Sample #
#                          s\SampleApp\CC2530DB\..\..\..\..\..\Components\mac #
#                          \include\ -I D:\zigbee\±ÏÉè\lzq\Terminal\Projects\ #
#                          zstack\Samples\SampleApp\CC2530DB\..\..\..\..\..\C #
#                          omponents\mac\high_level\ -I                       #
#                          D:\zigbee\±ÏÉè\lzq\Terminal\Projects\zstack\Sample #
#                          s\SampleApp\CC2530DB\..\..\..\..\..\Components\mac #
#                          \low_level\srf04\ -I D:\zigbee\±ÏÉè\lzq\Terminal\P #
#                          rojects\zstack\Samples\SampleApp\CC2530DB\..\..\.. #
#                          \..\..\Components\mac\low_level\srf04\single_chip\ #
#                           -I D:\zigbee\±ÏÉè\lzq\Terminal\Projects\zstack\Sa #
#                          mples\SampleApp\CC2530DB\..\..\..\..\..\Components #
#                          \mt\ -I D:\zigbee\±ÏÉè\lzq\Terminal\Projects\zstac #
#                          k\Samples\SampleApp\CC2530DB\..\..\..\..\..\Compon #
#                          ents\osal\include\ -I D:\zigbee\±ÏÉè\lzq\Terminal\ #
#                          Projects\zstack\Samples\SampleApp\CC2530DB\..\..\. #
#                          .\..\..\Components\services\saddr\ -I              #
#                          D:\zigbee\±ÏÉè\lzq\Terminal\Projects\zstack\Sample #
#                          s\SampleApp\CC2530DB\..\..\..\..\..\Components\ser #
#                          vices\sdata\ -I D:\zigbee\±ÏÉè\lzq\Terminal\Projec #
#                          ts\zstack\Samples\SampleApp\CC2530DB\..\..\..\..\. #
#                          .\Components\stack\af\ -I                          #
#                          D:\zigbee\±ÏÉè\lzq\Terminal\Projects\zstack\Sample #
#                          s\SampleApp\CC2530DB\..\..\..\..\..\Components\sta #
#                          ck\nwk\ -I D:\zigbee\±ÏÉè\lzq\Terminal\Projects\zs #
#                          tack\Samples\SampleApp\CC2530DB\..\..\..\..\..\Com #
#                          ponents\stack\sapi\ -I D:\zigbee\±ÏÉè\lzq\Terminal #
#                          \Projects\zstack\Samples\SampleApp\CC2530DB\..\..\ #
#                          ..\..\..\Components\stack\sec\ -I                  #
#                          D:\zigbee\±ÏÉè\lzq\Terminal\Projects\zstack\Sample #
#                          s\SampleApp\CC2530DB\..\..\..\..\..\Components\sta #
#                          ck\sys\ -I D:\zigbee\±ÏÉè\lzq\Terminal\Projects\zs #
#                          tack\Samples\SampleApp\CC2530DB\..\..\..\..\..\Com #
#                          ponents\stack\zdo\ -I D:\zigbee\±ÏÉè\lzq\Terminal\ #
#                          Projects\zstack\Samples\SampleApp\CC2530DB\..\..\. #
#                          .\..\..\Components\zmac\ -I                        #
#                          D:\zigbee\±ÏÉè\lzq\Terminal\Projects\zstack\Sample #
#                          s\SampleApp\CC2530DB\..\..\..\..\..\Components\zma #
#                          c\f8w\ -Ohz                                        #
#    List file          =  D:\zigbee\±ÏÉè\lzq\Terminal\Projects\zstack\Sample #
#                          s\SampleApp\CC2530DB\EndDeviceEB\List\hal_drivers. #
#                          lst                                                #
#    Object file        =  D:\zigbee\±ÏÉè\lzq\Terminal\Projects\zstack\Sample #
#                          s\SampleApp\CC2530DB\EndDeviceEB\Obj\hal_drivers.r #
#                          51                                                 #
#                                                                             #
#                                                                             #
###############################################################################

D:\zigbee\±ÏÉè\lzq\Terminal\Components\hal\common\hal_drivers.c
      1          /**************************************************************************************************
      2            Filename:       hal_drivers.c
      3            Revised:        $Date: 2007-07-06 10:42:24 -0700 (Fri, 06 Jul 2007) $
      4            Revision:       $Revision: 13579 $
      5          
      6            Description:    This file contains the interface to the Drivers Service.
      7          
      8          
      9            Copyright 2005-2010 Texas Instruments Incorporated. All rights reserved.
     10          
     11            IMPORTANT: Your use of this Software is limited to those specific rights
     12            granted under the terms of a software license agreement between the user
     13            who downloaded the software, his/her employer (which must be your employer)
     14            and Texas Instruments Incorporated (the "License").  You may not use this
     15            Software unless you agree to abide by the terms of the License. The License
     16            limits your use, and you acknowledge, that the Software may not be modified,
     17            copied or distributed unless embedded on a Texas Instruments microcontroller
     18            or used solely and exclusively in conjunction with a Texas Instruments radio
     19            frequency transceiver, which is integrated into your product.  Other than for
     20            the foregoing purpose, you may not use, reproduce, copy, prepare derivative
     21            works of, modify, distribute, perform, display or sell this Software and/or
     22            its documentation for any purpose.
     23          
     24            YOU FURTHER ACKNOWLEDGE AND AGREE THAT THE SOFTWARE AND DOCUMENTATION ARE
     25            PROVIDED “AS IS” WITHOUT WARRANTY OF ANY KIND, EITHER EXPRESS OR IMPLIED,
     26            INCLUDING WITHOUT LIMITATION, ANY WARRANTY OF MERCHANTABILITY, TITLE,
     27            NON-INFRINGEMENT AND FITNESS FOR A PARTICULAR PURPOSE. IN NO EVENT SHALL
     28            TEXAS INSTRUMENTS OR ITS LICENSORS BE LIABLE OR OBLIGATED UNDER CONTRACT,
     29            NEGLIGENCE, STRICT LIABILITY, CONTRIBUTION, BREACH OF WARRANTY, OR OTHER
     30            LEGAL EQUITABLE THEORY ANY DIRECT OR INDIRECT DAMAGES OR EXPENSES
     31            INCLUDING BUT NOT LIMITED TO ANY INCIDENTAL, SPECIAL, INDIRECT, PUNITIVE
     32            OR CONSEQUENTIAL DAMAGES, LOST PROFITS OR LOST DATA, COST OF PROCUREMENT
     33            OF SUBSTITUTE GOODS, TECHNOLOGY, SERVICES, OR ANY CLAIMS BY THIRD PARTIES
     34            (INCLUDING BUT NOT LIMITED TO ANY DEFENSE THEREOF), OR OTHER SIMILAR COSTS.
     35          
     36            Should you have any questions regarding your right to use this Software,
     37            contact Texas Instruments Incorporated at www.TI.com.
     38          **************************************************************************************************/
     39          
     40          
     41          /**************************************************************************************************
     42           *                                            INCLUDES
     43           **************************************************************************************************/
     44          #include "hal_types.h"
     45          #include "OSAL.h"
     46          #include "hal_drivers.h"
     47          #include "hal_adc.h"
     48          #if (defined HAL_DMA) && (HAL_DMA == TRUE)
     49            #include "hal_dma.h"
     50          #endif
     51          #include "hal_key.h"
     52          #include "hal_lcd.h"
     53          #include "hal_led.h"
     54          #include "hal_timer.h"
     55          #include "hal_uart.h"
     56          #include "hal_sleep.h"
     57          #if (defined HAL_AES) && (HAL_AES == TRUE)
     58            #include "hal_aes.h"
     59          #endif
     60          
     61          #if (defined HAL_SPI) && (HAL_SPI == TRUE)
     62            #include "hal_spi.h"
     63          #endif
     64          #if (defined HAL_HID) && (HAL_HID == TRUE)
     65            #include "usb_hid.h"
     66          #endif
     67          
     68          #ifdef CC2591_COMPRESSION_WORKAROUND
     69            #include "mac_rx.h"
     70          #endif
     71          
     72          //oled
     73          #include "oled.h"
     74          
     75          /**************************************************************************************************
     76           *                                            MACROS
     77           **************************************************************************************************/
     78          
     79          
     80          
     81          /**************************************************************************************************
     82           *                                          CONSTANTS
     83           **************************************************************************************************/
     84          
     85          
     86          /**************************************************************************************************
     87           *                                          TYPEDEFS
     88           **************************************************************************************************/
     89          
     90          
     91          /**************************************************************************************************
     92           *                                      GLOBAL VARIABLES
     93           **************************************************************************************************/

   \                                 In  segment XDATA_Z, align 1, keep-with-next
     94          uint8 Hal_TaskID;
   \                     Hal_TaskID:
   \   000000                DS 1
   \   000001                REQUIRE __INIT_XDATA_Z
     95          
     96          extern void HalLedUpdate( void ); /* Notes: This for internal only so it shouldn't be in hal_led.h */
     97          
     98          /**************************************************************************************************
     99           *                                      FUNCTIONS - API
    100           **************************************************************************************************/
    101          
    102          /**************************************************************************************************
    103           * @fn      Hal_Init
    104           *
    105           * @brief   Hal Initialization function.
    106           *
    107           * @param   task_id - Hal TaskId
    108           *
    109           * @return  None
    110           **************************************************************************************************/

   \                                 In  segment BANKED_CODE, align 1, keep-with-next
    111          void Hal_Init( uint8 task_id )
   \                     Hal_Init:
    112          {
   \   000000   C082         PUSH    DPL
   \   000002   C083         PUSH    DPH
   \   000004                ; Saved register size: 2
   \   000004                ; Auto size: 0
    113            /* Register task ID */
    114            Hal_TaskID = task_id;
   \   000004   E9           MOV     A,R1
   \   000005   90....       MOV     DPTR,#Hal_TaskID
   \   000008   F0           MOVX    @DPTR,A
    115            
    116          #ifdef CC2591_COMPRESSION_WORKAROUND  
    117            osal_start_reload_timer( Hal_TaskID, PERIOD_RSSI_RESET_EVT, PERIOD_RSSI_RESET_TIMEOUT );
    118          #endif  
    119          }
   \   000009                REQUIRE ?Subroutine0
   \   000009                ; // Fall through to label ?Subroutine0

   \                                 In  segment BANKED_CODE, align 1, keep-with-next
   \                     ?Subroutine0:
   \   000000   D083         POP     DPH
   \   000002   D082         POP     DPL
   \   000004   02....       LJMP    ?BRET
    120          
    121          /**************************************************************************************************
    122           * @fn      Hal_DriverInit
    123           *
    124           * @brief   Initialize HW - These need to be initialized before anyone.
    125           *
    126           * @param   task_id - Hal TaskId
    127           *
    128           * @return  None
    129           **************************************************************************************************/

   \                                 In  segment BANKED_CODE, align 1, keep-with-next
    130          void HalDriverInit (void)
   \                     HalDriverInit:
    131          {
   \   000000   C082         PUSH    DPL
   \   000002   C083         PUSH    DPH
   \   000004                ; Saved register size: 2
   \   000004                ; Auto size: 0
    132            /* TIMER */
    133          #if (defined HAL_TIMER) && (HAL_TIMER == TRUE)
    134            #error "The hal timer driver module is removed."
    135          #endif
    136          
    137            /* ADC */
    138          #if (defined HAL_ADC) && (HAL_ADC == TRUE)
    139            HalAdcInit();
   \   000004                ; Setup parameters for call to function HalAdcInit
   \   000004   12....       LCALL   ??HalAdcInit?relay
    140          #endif
    141          
    142            /* DMA */
    143          #if (defined HAL_DMA) && (HAL_DMA == TRUE)
    144            // Must be called before the init call to any module that uses DMA.
    145            HalDmaInit();
   \   000007                ; Setup parameters for call to function HalDmaInit
   \   000007   12....       LCALL   ??HalDmaInit?relay
    146          #endif
    147          
    148            /* AES */
    149          #if (defined HAL_AES) && (HAL_AES == TRUE)
    150            HalAesInit();
   \   00000A                ; Setup parameters for call to function HalAesInit
   \   00000A   12....       LCALL   ??HalAesInit?relay
    151          #endif
    152          
    153            /* LCD */
    154          #if (defined HAL_LCD) && (HAL_LCD == TRUE)
    155           // HalLcdInit();       //TFT 
    156            LCD_Init();   //OLED
   \   00000D                ; Setup parameters for call to function LCD_Init
   \   00000D   12....       LCALL   ??LCD_Init?relay
    157          #endif
    158            
    159            
    160          
    161            /* LED */
    162          #if (defined HAL_LED) && (HAL_LED == TRUE)
    163            HalLedInit();
   \   000010                ; Setup parameters for call to function HalLedInit
   \   000010   12....       LCALL   ??HalLedInit?relay
    164          #endif
    165          
    166            /* UART */
    167          #if (defined HAL_UART) && (HAL_UART == TRUE)
    168            HalUARTInit();
   \   000013                ; Setup parameters for call to function HalUARTInit
   \   000013   12....       LCALL   ??HalUARTInit?relay
    169          #endif
    170          
    171            /* KEY */
    172          #if (defined HAL_KEY) && (HAL_KEY == TRUE)
    173            HalKeyInit();
   \   000016                ; Setup parameters for call to function HalKeyInit
   \   000016   12....       LCALL   ??HalKeyInit?relay
    174          #endif
    175          
    176            /* SPI */
    177          #if (defined HAL_SPI) && (HAL_SPI == TRUE)
    178            HalSpiInit();
    179          #endif
    180          
    181            /* HID */
    182          #if (defined HAL_HID) && (HAL_HID == TRUE)
    183            usbHidInit();
    184          #endif
    185          }
   \   000019   80..         SJMP    ?Subroutine0
    186          
    187          
    188          /**************************************************************************************************
    189           * @fn      Hal_ProcessEvent
    190           *
    191           * @brief   Hal Process Event
    192           *
    193           * @param   task_id - Hal TaskId
    194           *          events - events
    195           *
    196           * @return  None
    197           **************************************************************************************************/

   \                                 In  segment BANKED_CODE, align 1, keep-with-next
    198          uint16 Hal_ProcessEvent( uint8 task_id, uint16 events )
   \                     Hal_ProcessEvent:
    199          {
   \   000000   74F6         MOV     A,#-0xa
   \   000002   12....       LCALL   ?BANKED_ENTER_XDATA
   \   000005                ; Saved register size: 10
   \   000005                ; Auto size: 0
   \   000005   EA           MOV     A,R2
   \   000006   FE           MOV     R6,A
   \   000007   EB           MOV     A,R3
   \   000008   FF           MOV     R7,A
    200            uint8 *msgPtr;
    201            
    202            (void)task_id;  // Intentionally unreferenced parameter
    203          
    204            if ( events & SYS_EVENT_MSG )
   \   000009   5480         ANL     A,#0x80
   \   00000B   6018         JZ      ??Hal_ProcessEvent_0
    205            {
    206              msgPtr = osal_msg_receive(Hal_TaskID);
   \   00000D                ; Setup parameters for call to function osal_msg_receive
   \   00000D   8003         SJMP    ??Hal_ProcessEvent_1
    207          
    208              while (msgPtr)
    209              {
    210                /* Do something here - for now, just deallocate the msg and move on */
    211          
    212                /* De-allocate */
    213                osal_msg_deallocate( msgPtr );
   \                     ??Hal_ProcessEvent_2:
   \   00000F                ; Setup parameters for call to function osal_msg_deallocate
   \   00000F   12....       LCALL   ??osal_msg_deallocate?relay
    214                /* Next */
    215                msgPtr = osal_msg_receive( Hal_TaskID );
   \   000012                ; Setup parameters for call to function osal_msg_receive
   \                     ??Hal_ProcessEvent_1:
   \   000012   90....       MOV     DPTR,#Hal_TaskID
   \   000015   E0           MOVX    A,@DPTR
   \   000016   F9           MOV     R1,A
   \   000017   12....       LCALL   ??osal_msg_receive?relay
    216              }
   \   00001A   EA           MOV     A,R2
   \   00001B   4B           ORL     A,R3
   \   00001C   70F1         JNZ     ??Hal_ProcessEvent_2
    217              return events ^ SYS_EVENT_MSG;
   \   00001E   EE           MOV     A,R6
   \   00001F   FA           MOV     R2,A
   \   000020   EF           MOV     A,R7
   \   000021   6480         XRL     A,#0x80
   \   000023   8030         SJMP    ??Hal_ProcessEvent_3
    218            }
    219          
    220            if ( events & HAL_LED_BLINK_EVENT )
   \                     ??Hal_ProcessEvent_0:
   \   000025   EE           MOV     A,R6
   \   000026   5402         ANL     A,#0x2
   \   000028   6008         JZ      ??Hal_ProcessEvent_4
    221            {
    222          #if (defined (BLINK_LEDS)) && (HAL_LED == TRUE)
    223              HalLedUpdate();
   \   00002A                ; Setup parameters for call to function HalLedUpdate
   \   00002A   12....       LCALL   ??HalLedUpdate?relay
    224          #endif /* BLINK_LEDS && HAL_LED */
    225              return events ^ HAL_LED_BLINK_EVENT;
   \   00002D   EE           MOV     A,R6
   \   00002E   6402         XRL     A,#0x2
   \   000030   8021         SJMP    ??Hal_ProcessEvent_5
    226            }
    227          
    228            if (events & HAL_KEY_EVENT)
   \                     ??Hal_ProcessEvent_4:
   \   000032   EE           MOV     A,R6
   \   000033   A2E0         MOV     C,0xE0 /* A   */.0
   \   000035   5021         JNC     ??Hal_ProcessEvent_6
    229            {
    230          
    231          #if (defined HAL_KEY) && (HAL_KEY == TRUE)
    232              /* Check for keys */
    233              HalKeyPoll();
   \   000037                ; Setup parameters for call to function HalKeyPoll
   \   000037   12....       LCALL   ??HalKeyPoll?relay
    234          
    235              /* if interrupt disabled, do next polling */
    236              if (!Hal_KeyIntEnable)
   \   00003A   90....       MOV     DPTR,#Hal_KeyIntEnable
   \   00003D   E0           MOVX    A,@DPTR
   \   00003E   7010         JNZ     ??Hal_ProcessEvent_7
    237              {
    238                osal_start_timerEx( Hal_TaskID, HAL_KEY_EVENT, 100);
   \   000040                ; Setup parameters for call to function osal_start_timerEx
   \   000040   7C64         MOV     R4,#0x64
   \   000042   7D00         MOV     R5,#0x0
   \   000044   7A01         MOV     R2,#0x1
   \   000046   7B00         MOV     R3,#0x0
   \   000048   90....       MOV     DPTR,#Hal_TaskID
   \   00004B   E0           MOVX    A,@DPTR
   \   00004C   F9           MOV     R1,A
   \   00004D   12....       LCALL   ??osal_start_timerEx?relay
    239              }
    240          #endif // HAL_KEY
    241          
    242              return events ^ HAL_KEY_EVENT;
   \                     ??Hal_ProcessEvent_7:
   \   000050   EE           MOV     A,R6
   \   000051   6401         XRL     A,#0x1
   \                     ??Hal_ProcessEvent_5:
   \   000053   FA           MOV     R2,A
   \   000054   EF           MOV     A,R7
   \                     ??Hal_ProcessEvent_3:
   \   000055   FB           MOV     R3,A
   \   000056   8004         SJMP    ??Hal_ProcessEvent_8
    243            }
    244          
    245          #ifdef POWER_SAVING
    246            if ( events & HAL_SLEEP_TIMER_EVENT )
    247            {
    248              halRestoreSleepLevel();
    249              return events ^ HAL_SLEEP_TIMER_EVENT;
    250            }
    251          #endif
    252          
    253          #ifdef CC2591_COMPRESSION_WORKAROUND
    254            if ( events & PERIOD_RSSI_RESET_EVT )
    255            {
    256              macRxResetRssi();
    257              return (events ^ PERIOD_RSSI_RESET_EVT);
    258            }
    259          #endif  
    260            
    261            /* Nothing interested, discard the message */
    262            return 0;
   \                     ??Hal_ProcessEvent_6:
   \   000058   7A00         MOV     R2,#0x0
   \   00005A   7B00         MOV     R3,#0x0
   \                     ??Hal_ProcessEvent_8:
   \   00005C   7F02         MOV     R7,#0x2
   \   00005E   02....       LJMP    ?BANKED_LEAVE_XDATA
    263          
    264          }
    265          
    266          /**************************************************************************************************
    267           * @fn      Hal_ProcessPoll
    268           *
    269           * @brief   This routine will be called by OSAL to poll UART, TIMER...
    270           *
    271           * @param   task_id - Hal TaskId
    272           *
    273           * @return  None
    274           **************************************************************************************************/

   \                                 In  segment BANKED_CODE, align 1, keep-with-next
    275          void Hal_ProcessPoll ()
   \                     Hal_ProcessPoll:
    276          {
   \   000000   C082         PUSH    DPL
   \   000002   C083         PUSH    DPH
   \   000004                ; Saved register size: 2
   \   000004                ; Auto size: 0
    277          
    278            /* Timer Poll */
    279          #if (defined HAL_TIMER) && (HAL_TIMER == TRUE)
    280            #error "The hal timer driver module is removed."
    281          #endif
    282          
    283            /* UART Poll */
    284          #if (defined HAL_UART) && (HAL_UART == TRUE)
    285            HalUARTPoll();
   \   000004                ; Setup parameters for call to function HalUARTPoll
   \   000004   12....       LCALL   ??HalUARTPoll?relay
    286          #endif  
    287          
    288            /* SPI Poll */
    289          #if (defined HAL_SPI) && (HAL_SPI == TRUE)
    290            HalSpiPoll();
    291          #endif
    292          
    293            /* HID poll */
    294          #if (defined HAL_HID) && (HAL_HID == TRUE)
    295            usbHidProcessEvents();
    296          #endif
    297            
    298          #if defined( POWER_SAVING )
    299            /* Allow sleep before the next OSAL event loop */
    300            ALLOW_SLEEP_MODE();
    301          #endif
    302          
    303          }
   \   000007   02....       LJMP    ?Subroutine0 & 0xFFFF

   \                                 In  segment BANK_RELAYS, align 1
   \                     ??Hal_Init?relay:
   \   000000   12....       LCALL   ?BDISPATCH
   \   000003   ......       DC24    Hal_Init

   \                                 In  segment BANK_RELAYS, align 1
   \                     ??HalDriverInit?relay:
   \   000000   12....       LCALL   ?BDISPATCH
   \   000003   ......       DC24    HalDriverInit

   \                                 In  segment BANK_RELAYS, align 1
   \                     ??Hal_ProcessEvent?relay:
   \   000000   12....       LCALL   ?BDISPATCH
   \   000003   ......       DC24    Hal_ProcessEvent

   \                                 In  segment BANK_RELAYS, align 1
   \                     ??Hal_ProcessPoll?relay:
   \   000000   12....       LCALL   ?BDISPATCH
   \   000003   ......       DC24    Hal_ProcessPoll
    304          
    305          
    306          /**************************************************************************************************
    307          **************************************************************************************************/
    308          

   Maximum stack usage in bytes:

   ISTACK PSTACK XSTACK Function
   ------ ------ ------ --------
       2      0      0  HalDriverInit
                          2 0  0 -> HalAdcInit
                          2 0  0 -> HalAesInit
                          2 0  0 -> HalDmaInit
                          2 0  0 -> HalKeyInit
                          2 0  0 -> HalLedInit
                          2 0  0 -> HalUARTInit
                          2 0  0 -> LCD_Init
       2      0      0  Hal_Init
       0      0     10  Hal_ProcessEvent
                          0 0 10 -> HalKeyPoll
                          0 0 10 -> HalLedUpdate
                          0 0 10 -> osal_msg_deallocate
                          0 0 10 -> osal_msg_receive
                          0 0 10 -> osal_start_timerEx
       2      0      0  Hal_ProcessPoll
                          2 0  0 -> HalUARTPoll


   Segment part sizes:

   Bytes  Function/Label
   -----  --------------
       6  ??HalDriverInit?relay
       6  ??Hal_Init?relay
       6  ??Hal_ProcessEvent?relay
       6  ??Hal_ProcessPoll?relay
       7  ?Subroutine0
      27  HalDriverInit
       9  Hal_Init
      97  Hal_ProcessEvent
      10  Hal_ProcessPoll
       1  Hal_TaskID

 
 150 bytes in segment BANKED_CODE
  24 bytes in segment BANK_RELAYS
   1 byte  in segment XDATA_Z
 
 174 bytes of CODE  memory
   1 byte  of XDATA memory

Errors: none
Warnings: none
