###############################################################################
#                                                                             #
# IAR C/C++ Compiler V8.20.2.41139 for 8051             29/Apr/2018  10:28:52 #
# Copyright 2004-2013 IAR Systems AB.                                         #
#                                                                             #
#    Core               =  plain                                              #
#    Code model         =  banked                                             #
#    Data model         =  large                                              #
#    Calling convention =  xdata reentrant                                    #
#    Constant location  =  data_rom                                           #
#    Dptr setup         =  1,16                                               #
#                                                                             #
#    Source file        =  D:\zigbee\毕设\lzq\Terminal\Projects\zstack\Sample #
#                          s\SampleApp\Source\SampleApp.c                     #
#    Command line       =  -f D:\zigbee\毕设\lzq\Terminal\Projects\zstack\Sam #
#                          ples\SampleApp\CC2530DB\..\..\..\Tools\CC2530DB\f8 #
#                          wEndev.cfg (-DCPU32MHZ -DROOT=__near_func          #
#                          -DMAC_CFG_TX_DATA_MAX=3 -DMAC_CFG_TX_MAX=6         #
#                          -DMAC_CFG_RX_MAX=3) -f D:\zigbee\毕设\lzq\Terminal #
#                          \Projects\zstack\Samples\SampleApp\CC2530DB\..\..\ #
#                          ..\Tools\CC2530DB\f8wConfig.cfg (-DZIGBEEPRO       #
#                          -DSECURE=0 -DZG_SECURE_DYNAMIC=0 -DREFLECTOR       #
#                          -DDEFAULT_CHANLIST=0x00000800                      #
#                          -DZDAPP_CONFIG_PAN_ID=0xFFF1                       #
#                          -DNWK_START_DELAY=100 -DEXTENDED_JOINING_RANDOM_MA #
#                          SK=0x007F -DBEACON_REQUEST_DELAY=100               #
#                          -DBEACON_REQ_DELAY_MASK=0x00FF                     #
#                          -DLINK_STATUS_JITTER_MASK=0x007F                   #
#                          -DROUTE_EXPIRY_TIME=30 -DAPSC_ACK_WAIT_DURATION_PO #
#                          LLED=3000 -DNWK_INDIRECT_MSG_TIMEOUT=7             #
#                          -DMAX_RREQ_ENTRIES=8 -DAPSC_MAX_FRAME_RETRIES=3    #
#                          -DNWK_MAX_DATA_RETRIES=2                           #
#                          -DMAX_POLL_FAILURE_RETRIES=2 -DMAX_BCAST=9         #
#                          -DAPS_MAX_GROUPS=16 -DMAX_RTG_ENTRIES=40           #
#                          -DNWK_MAX_BINDING_ENTRIES=4                        #
#                          -DMAX_BINDING_CLUSTER_IDS=4 "-DDEFAULT_KEY={0x01,  #
#                          0x03, 0x05, 0x07, 0x09, 0x0B, 0x0D, 0x0F, 0x00,    #
#                          0x02, 0x04, 0x06, 0x08, 0x0A, 0x0C, 0x0D}"         #
#                          -DMAC_MAX_FRAME_SIZE=116                           #
#                          -DZDNWKMGR_MIN_TRANSMISSIONS=20 "-DCONST=const     #
#                          __code" -DGENERIC=__generic                        #
#                          -DRFD_RCVC_ALWAYS_ON=FALSE -DPOLL_RATE=1000        #
#                          -DQUEUED_POLL_RATE=100 -DRESPONSE_POLL_RATE=100)   #
#                          -DREJOIN_POLL_RATE=440 D:\zigbee\毕设\lzq\Terminal #
#                          \Projects\zstack\Samples\SampleApp\Source\SampleAp #
#                          p.c -D NWK_AUTO_POLL -D ZTOOL_P1 -D MT_TASK -D     #
#                          MT_SYS_FUNC -D MT_ZDO_FUNC -D                      #
#                          xLCD_SUPPORTED=DEBUG -lC                           #
#                          D:\zigbee\毕设\lzq\Terminal\Projects\zstack\Sample #
#                          s\SampleApp\CC2530DB\EndDeviceEB\List\ -lA         #
#                          D:\zigbee\毕设\lzq\Terminal\Projects\zstack\Sample #
#                          s\SampleApp\CC2530DB\EndDeviceEB\List\             #
#                          --diag_suppress Pe001,Pa010 -o                     #
#                          D:\zigbee\毕设\lzq\Terminal\Projects\zstack\Sample #
#                          s\SampleApp\CC2530DB\EndDeviceEB\Obj\ -e           #
#                          --no_code_motion --debug --core=plain --dptr=16,1  #
#                          --data_model=large --code_model=banked             #
#                          --calling_convention=xdata_reentrant               #
#                          --place_constants=data_rom --nr_virtual_regs 16    #
#                          -I D:\zigbee\毕设\lzq\Terminal\Projects\zstack\Sam #
#                          ples\SampleApp\CC2530DB\ -I                        #
#                          D:\zigbee\毕设\lzq\Terminal\Projects\zstack\Sample #
#                          s\SampleApp\CC2530DB\..\Source\ -I                 #
#                          D:\zigbee\毕设\lzq\Terminal\Projects\zstack\Sample #
#                          s\SampleApp\CC2530DB\..\..\..\ZMain\TI2530DB\ -I   #
#                          D:\zigbee\毕设\lzq\Terminal\Projects\zstack\Sample #
#                          s\SampleApp\CC2530DB\..\..\..\..\..\Components\hal #
#                          \include\ -I D:\zigbee\毕设\lzq\Terminal\Projects\ #
#                          zstack\Samples\SampleApp\CC2530DB\..\..\..\..\..\C #
#                          omponents\hal\target\CC2530EB\ -I                  #
#                          D:\zigbee\毕设\lzq\Terminal\Projects\zstack\Sample #
#                          s\SampleApp\CC2530DB\..\..\..\..\..\Components\mac #
#                          \include\ -I D:\zigbee\毕设\lzq\Terminal\Projects\ #
#                          zstack\Samples\SampleApp\CC2530DB\..\..\..\..\..\C #
#                          omponents\mac\high_level\ -I                       #
#                          D:\zigbee\毕设\lzq\Terminal\Projects\zstack\Sample #
#                          s\SampleApp\CC2530DB\..\..\..\..\..\Components\mac #
#                          \low_level\srf04\ -I D:\zigbee\毕设\lzq\Terminal\P #
#                          rojects\zstack\Samples\SampleApp\CC2530DB\..\..\.. #
#                          \..\..\Components\mac\low_level\srf04\single_chip\ #
#                           -I D:\zigbee\毕设\lzq\Terminal\Projects\zstack\Sa #
#                          mples\SampleApp\CC2530DB\..\..\..\..\..\Components #
#                          \mt\ -I D:\zigbee\毕设\lzq\Terminal\Projects\zstac #
#                          k\Samples\SampleApp\CC2530DB\..\..\..\..\..\Compon #
#                          ents\osal\include\ -I D:\zigbee\毕设\lzq\Terminal\ #
#                          Projects\zstack\Samples\SampleApp\CC2530DB\..\..\. #
#                          .\..\..\Components\services\saddr\ -I              #
#                          D:\zigbee\毕设\lzq\Terminal\Projects\zstack\Sample #
#                          s\SampleApp\CC2530DB\..\..\..\..\..\Components\ser #
#                          vices\sdata\ -I D:\zigbee\毕设\lzq\Terminal\Projec #
#                          ts\zstack\Samples\SampleApp\CC2530DB\..\..\..\..\. #
#                          .\Components\stack\af\ -I                          #
#                          D:\zigbee\毕设\lzq\Terminal\Projects\zstack\Sample #
#                          s\SampleApp\CC2530DB\..\..\..\..\..\Components\sta #
#                          ck\nwk\ -I D:\zigbee\毕设\lzq\Terminal\Projects\zs #
#                          tack\Samples\SampleApp\CC2530DB\..\..\..\..\..\Com #
#                          ponents\stack\sapi\ -I D:\zigbee\毕设\lzq\Terminal #
#                          \Projects\zstack\Samples\SampleApp\CC2530DB\..\..\ #
#                          ..\..\..\Components\stack\sec\ -I                  #
#                          D:\zigbee\毕设\lzq\Terminal\Projects\zstack\Sample #
#                          s\SampleApp\CC2530DB\..\..\..\..\..\Components\sta #
#                          ck\sys\ -I D:\zigbee\毕设\lzq\Terminal\Projects\zs #
#                          tack\Samples\SampleApp\CC2530DB\..\..\..\..\..\Com #
#                          ponents\stack\zdo\ -I D:\zigbee\毕设\lzq\Terminal\ #
#                          Projects\zstack\Samples\SampleApp\CC2530DB\..\..\. #
#                          .\..\..\Components\zmac\ -I                        #
#                          D:\zigbee\毕设\lzq\Terminal\Projects\zstack\Sample #
#                          s\SampleApp\CC2530DB\..\..\..\..\..\Components\zma #
#                          c\f8w\ -Ohz                                        #
#    List file          =  D:\zigbee\毕设\lzq\Terminal\Projects\zstack\Sample #
#                          s\SampleApp\CC2530DB\EndDeviceEB\List\SampleApp.ls #
#                          t                                                  #
#    Object file        =  D:\zigbee\毕设\lzq\Terminal\Projects\zstack\Sample #
#                          s\SampleApp\CC2530DB\EndDeviceEB\Obj\SampleApp.r51 #
#                                                                             #
#                                                                             #
###############################################################################

D:\zigbee\毕设\lzq\Terminal\Projects\zstack\Samples\SampleApp\Source\SampleApp.c
      1          /**************************************************************************************************
      2            Filename:       SampleApp.c
      3            Revised:        $Date: 2009-03-18 15:56:27 -0700 (Wed, 18 Mar 2009) $
      4            Revision:       $Revision: 19453 $
      5          
      6            Description:    Sample Application (no Profile).
      7          
      8          
      9            Copyright 2007 Texas Instruments Incorporated. All rights reserved.
     10          
     11            IMPORTANT: Your use of this Software is limited to those specific rights
     12            granted under the terms of a software license agreement between the user
     13            who downloaded the software, his/her employer (which must be your employer)
     14            and Texas Instruments Incorporated (the "License").  You may not use this
     15            Software unless you agree to abide by the terms of the License. The License
     16            limits your use, and you acknowledge, that the Software may not be modified,
     17            copied or distributed unless embedded on a Texas Instruments microcontroller
     18            or used solely and exclusively in conjunction with a Texas Instruments radio
     19            frequency transceiver, which is integrated into your product.  Other than for
     20            the foregoing purpose, you may not use, reproduce, copy, prepare derivative
     21            works of, modify, distribute, perform, display or sell this Software and/or
     22            its documentation for any purpose.
     23          
     24            YOU FURTHER ACKNOWLEDGE AND AGREE THAT THE SOFTWARE AND DOCUMENTATION ARE
     25            PROVIDED AS IS?WITHOUT WARRANTY OF ANY KIND, EITHER EXPRESS OR IMPLIED,
     26            INCLUDING WITHOUT LIMITATION, ANY WARRANTY OF MERCHANTABILITY, TITLE,
     27            NON-INFRINGEMENT AND FITNESS FOR A PARTICULAR PURPOSE. IN NO EVENT SHALL
     28            TEXAS INSTRUMENTS OR ITS LICENSORS BE LIABLE OR OBLIGATED UNDER CONTRACT,
     29            NEGLIGENCE, STRICT LIABILITY, CONTRIBUTION, BREACH OF WARRANTY, OR OTHER
     30            LEGAL EQUITABLE THEORY ANY DIRECT OR INDIRECT DAMAGES OR EXPENSES
     31            INCLUDING BUT NOT LIMITED TO ANY INCIDENTAL, SPECIAL, INDIRECT, PUNITIVE
     32            OR CONSEQUENTIAL DAMAGES, LOST PROFITS OR LOST DATA, COST OF PROCUREMENT
     33            OF SUBSTITUTE GOODS, TECHNOLOGY, SERVICES, OR ANY CLAIMS BY THIRD PARTIES
     34            (INCLUDING BUT NOT LIMITED TO ANY DEFENSE THEREOF), OR OTHER SIMILAR COSTS.
     35          
     36            Should you have any questions regarding your right to use this Software,
     37            contact Texas Instruments Incorporated at www.TI.com.
     38          **************************************************************************************************/
     39          
     40          /*********************************************************************
     41            This application isn't intended to do anything useful, it is
     42            intended to be a simple example of an application's structure.
     43          
     44            This application sends it's messages either as broadcast or
     45            broadcast filtered group messages.  The other (more normal)
     46            message addressing is unicast.  Most of the other sample
     47            applications are written to support the unicast message model.
     48          
     49            Key control:
     50              SW1:  Sends a flash command to all devices in Group 1.
     51              SW2:  Adds/Removes (toggles) this device in and out
     52                    of Group 1.  This will enable and disable the
     53                    reception of the flash command.
     54          *********************************************************************/
     55          
     56          /*********************************************************************
     57           * INCLUDES
     58           */
     59          #include "OSAL.h"
     60          #include "ZGlobals.h"
     61          #include "AF.h"
     62          #include "aps_groups.h"
     63          #include "ZDApp.h"
     64          
     65          #include "SampleApp.h"
     66          #include "SampleAppHw.h"
     67          
     68          #include "OnBoard.h"

   \                                 In  segment SFR_AN, at 0xf3
   \   unsigned char volatile __sfr P0SEL
   \                     P0SEL:
   \   000000                DS 1

   \                                 In  segment SFR_AN, at 0xfd
   \   unsigned char volatile __sfr P0DIR
   \                     P0DIR:
   \   000000                DS 1
     69          
     70          /* HAL */
     71          #include "hal_lcd.h"
     72          #include "hal_led.h"
     73          #include "hal_key.h"
     74          #include "MT_UART.h"
     75          #include "MT_APP.h"
     76          #include "MT.h"
     77          
     78          #include <string.h>
     79          #include <stdio.h>
     80              
     81          //传感器
     82          #include "DHT11.h"
     83          #include "mq2.h"
     84          #include "oled.h"
     85          
     86          
     87          
     88          /*********************************************************************
     89           * MACROS
     90           */
     91          
     92          /*********************************************************************
     93           * CONSTANTS
     94           */
     95          
     96          /*********************************************************************
     97           * TYPEDEFS
     98           */
     99          
    100          /*********************************************************************
    101           * GLOBAL VARIABLES
    102           */
    103          
    104          #define ZIGBEE_TERMINAL_ONE     0
    105          #define ZIGBEE_TERMINAL_TWO     0
    106          #define ZIGBEE_ROUTER_ONE       0
    107          #define ZIGBEE_COOR             1
    108          
    109          #if ZIGBEE_ROUTER_ONE
    110          char router_buffer[128] = {0};
    111          #endif
    112          

   \                                 In  segment XDATA_I, align 1, keep-with-next
    113          uint8 AppTitle[] = "ALD Broadcast"; //应用程序名称
   \                     AppTitle:
   \   000000                DS 14
   \   00000E                REQUIRE `?<Initializer for AppTitle>`
   \   00000E                REQUIRE __INIT_XDATA_I
    114          
    115          // This list should be filled with Application specific Cluster IDs.

   \                                 In  segment XDATA_ROM_C, align 1
    116          const cId_t SampleApp_ClusterList[SAMPLEAPP_MAX_CLUSTERS] =
   \                     SampleApp_ClusterList:
   \   000000   0100         DW 1
   \   000002   0200         DW 2
    117          {
    118            SAMPLEAPP_ROUTER_ONE,
    119            SAMPLEAPP_FLASH_CLUSTERID
    120          };
    121          

   \                                 In  segment XDATA_ROM_C, align 1
    122          const SimpleDescriptionFormat_t SampleApp_SimpleDesc =
   \                     SampleApp_SimpleDesc:
   \   000000   14           DB 20
   \   000001   080F         DW 3848
   \   000003   0100         DW 1
   \   000005   00           DB 0
   \   000006   02           DB 2
   \   000007   ....         DW SampleApp_ClusterList
   \   000009   02           DB 2
   \   00000A   ....         DW SampleApp_ClusterList
    123          {
    124            SAMPLEAPP_ENDPOINT,              //  int Endpoint;
    125            SAMPLEAPP_PROFID,                //  uint16 AppProfId[2];
    126            SAMPLEAPP_DEVICEID,              //  uint16 AppDeviceId[2];
    127            SAMPLEAPP_DEVICE_VERSION,        //  int   AppDevVer:4;
    128            SAMPLEAPP_FLAGS,                 //  int   AppFlags:4;
    129            SAMPLEAPP_MAX_CLUSTERS,          //  uint8  AppNumInClusters;
    130            (cId_t *)SampleApp_ClusterList,  //  uint8 *pAppInClusterList;
    131            SAMPLEAPP_MAX_CLUSTERS,          //  uint8  AppNumInClusters;
    132            (cId_t *)SampleApp_ClusterList   //  uint8 *pAppInClusterList;
    133          };
    134          
    135          // This is the Endpoint/Interface description.  It is defined here, but
    136          // filled-in in SampleApp_Init().  Another way to go would be to fill
    137          // in the structure here and make it a "const" (in code space).  The
    138          // way it's defined in this sample app it is define in RAM.

   \                                 In  segment XDATA_Z, align 1, keep-with-next
    139          endPointDesc_t SampleApp_epDesc;
   \                     SampleApp_epDesc:
   \   000000                DS 6
   \   000006                REQUIRE __INIT_XDATA_Z
    140          
    141          /*********************************************************************
    142           * EXTERNAL VARIABLES
    143           */
    144          
    145          /*********************************************************************
    146           * EXTERNAL FUNCTIONS
    147           */
    148          
    149          /*********************************************************************
    150           * LOCAL VARIABLES
    151           */

   \                                 In  segment XDATA_Z, align 1, keep-with-next
    152          uint8 SampleApp_TaskID;   // Task ID for internal task/event processing
   \                     SampleApp_TaskID:
   \   000000                DS 1
   \   000001                REQUIRE __INIT_XDATA_Z
    153                                    // This variable will be received when
    154                                    // SampleApp_Init() is called.

   \                                 In  segment XDATA_Z, align 1, keep-with-next
    155          devStates_t SampleApp_NwkState;
   \                     SampleApp_NwkState:
   \   000000                DS 1
   \   000001                REQUIRE __INIT_XDATA_Z
    156          

   \                                 In  segment XDATA_Z, align 1, keep-with-next
    157          uint8 SampleApp_TransID;  // This is the unique message ID (counter)
   \                     SampleApp_TransID:
   \   000000                DS 1
   \   000001                REQUIRE __INIT_XDATA_Z
    158          

   \                                 In  segment XDATA_Z, align 1, keep-with-next
    159          afAddrType_t SampleApp_Periodic_DstAddr;
   \                     SampleApp_Periodic_DstAddr:
   \   000000                DS 12
   \   00000C                REQUIRE __INIT_XDATA_Z

   \                                 In  segment XDATA_Z, align 1, keep-with-next
    160          afAddrType_t SampleApp_Flash_DstAddr;
   \                     SampleApp_Flash_DstAddr:
   \   000000                DS 12
   \   00000C                REQUIRE __INIT_XDATA_Z
    161          

   \                                 In  segment XDATA_Z, align 1, keep-with-next
    162          aps_Group_t SampleApp_Group;
   \                     SampleApp_Group:
   \   000000                DS 18
   \   000012                REQUIRE __INIT_XDATA_Z
    163          

   \                                 In  segment XDATA_Z, align 1, keep-with-next
    164          uint8 SampleAppPeriodicCounter = 0;
   \                     SampleAppPeriodicCounter:
   \   000000                DS 1
   \   000001                REQUIRE __INIT_XDATA_Z

   \                                 In  segment XDATA_Z, align 1, keep-with-next
    165          uint8 SampleAppFlashCounter = 0;
   \                     SampleAppFlashCounter:
   \   000000                DS 1
   \   000001                REQUIRE __INIT_XDATA_Z
    166          
    167          /*********************************************************************
    168           * LOCAL FUNCTIONS
    169           */
    170          void SampleApp_HandleKeys( uint8 shift, uint8 keys );
    171          void SampleApp_MessageMSGCB( afIncomingMSGPacket_t *pckt );
    172          void SampleApp_SendPeriodicMessage( void );
    173          void SampleApp_SendFlashMessage( uint16 flashTime );
    174          void SampleApp_SerialCMD(mtOSALSerialData_t *cmdMsg);
    175          
    176          /*********************************************************************
    177           * NETWORK LAYER CALLBACKS
    178           */
    179          
    180          /*********************************************************************
    181           * PUBLIC FUNCTIONS
    182           */
    183          
    184          /*********************************************************************
    185           * @fn      SampleApp_Init
    186           *
    187           * @brief   Initialization function for the Generic App Task.
    188           *          This is called during initialization and should contain
    189           *          any application specific initialization (ie. hardware
    190           *          initialization/setup, table initialization, power up
    191           *          notificaiton ... ).
    192           *
    193           * @param   task_id - the ID assigned by OSAL.  This ID should be
    194           *                    used to send messages and set timers.
    195           *
    196           * @return  none
    197           */

   \                                 In  segment BANKED_CODE, align 1, keep-with-next
    198          void SampleApp_Init( uint8 task_id )
   \                     SampleApp_Init:
    199          { 
   \   000000   74F5         MOV     A,#-0xb
   \   000002   12....       LCALL   ?BANKED_ENTER_XDATA
   \   000005                ; Saved register size: 11
   \   000005                ; Auto size: 0
   \   000005   E9           MOV     A,R1
   \   000006   FE           MOV     R6,A
    200            SampleApp_TaskID = task_id;
   \   000007   90....       MOV     DPTR,#SampleApp_TaskID
   \   00000A   F0           MOVX    @DPTR,A
    201            SampleApp_NwkState = DEV_INIT;
   \   00000B   90....       MOV     DPTR,#SampleApp_NwkState
   \   00000E   7401         MOV     A,#0x1
   \   000010   F0           MOVX    @DPTR,A
    202            SampleApp_TransID = 0;
   \   000011   90....       MOV     DPTR,#SampleApp_TransID
   \   000014   E4           CLR     A
   \   000015   F0           MOVX    @DPTR,A
    203            
    204            MT_UartInit();                  //串口初始化
   \   000016                ; Setup parameters for call to function MT_UartInit
   \   000016   12....       LCALL   ??MT_UartInit?relay
    205            MT_UartRegisterTaskID(task_id); //注册串口任务
   \   000019                ; Setup parameters for call to function MT_UartRegisterTaskID
   \   000019   EE           MOV     A,R6
   \   00001A   F9           MOV     R1,A
   \   00001B   12....       LCALL   ??MT_UartRegisterTaskID?relay
    206            HalUARTWrite(0,"UartInit OK\n", sizeof("UartInit OK\n"));//提示信息
   \   00001E                ; Setup parameters for call to function HalUARTWrite
   \   00001E   7C0D         MOV     R4,#0xd
   \   000020   7D00         MOV     R5,#0x0
   \   000022   7A..         MOV     R2,#`?<Constant "UartInit OK\\n">` & 0xff
   \   000024   7B..         MOV     R3,#(`?<Constant "UartInit OK\\n">` >> 8) & 0xff
   \   000026   7900         MOV     R1,#0x0
   \   000028   12....       LCALL   ??HalUARTWrite?relay
    207          
    208              
    209            
    210             //配置p07为普通输入IO
    211            P0DIR &= 0x3F;        //温度传感器
   \   00002B   53FD3F       ANL     0xfd,#0x3f
    212            P0SEL &= 0x3F;
   \   00002E   53F33F       ANL     0xf3,#0x3f
    213          
    214          
    215           #if defined ( BUILD_ALL_DEVICES )
    216            // The "Demo" target is setup to have BUILD_ALL_DEVICES and HOLD_AUTO_START
    217            // We are looking at a jumper (defined in SampleAppHw.c) to be jumpered
    218            // together - if they are - we will start up a coordinator. Otherwise,
    219            // the device will start as a router.
    220            if ( readCoordinatorJumper() )
    221              zgDeviceLogicalType = ZG_DEVICETYPE_COORDINATOR;
    222            else
    223              zgDeviceLogicalType = ZG_DEVICETYPE_ROUTER;
    224          #endif // BUILD_ALL_DEVICES
    225          
    226          #if defined ( HOLD_AUTO_START )
    227            // HOLD_AUTO_START is a compile option that will surpress ZDApp
    228            //  from starting the device and wait for the application to
    229            //  start the device.
    230            ZDOInitDevice(0);
    231          #endif
    232          
    233            // Setup for the periodic message's destination address
    234            // Broadcast to everyone
    235            SampleApp_Periodic_DstAddr.addrMode = (afAddrMode_t)AddrBroadcast;
   \   000031   90....       MOV     DPTR,#SampleApp_Periodic_DstAddr + 8
   \   000034   740F         MOV     A,#0xf
   \   000036   F0           MOVX    @DPTR,A
    236            SampleApp_Periodic_DstAddr.endPoint = SAMPLEAPP_ENDPOINT;
   \   000037   A3           INC     DPTR
   \   000038   7414         MOV     A,#0x14
   \   00003A   F0           MOVX    @DPTR,A
    237            SampleApp_Periodic_DstAddr.addr.shortAddr = 0xFFFF;
   \   00003B   90....       MOV     DPTR,#SampleApp_Periodic_DstAddr
   \   00003E   74FF         MOV     A,#-0x1
   \   000040   F0           MOVX    @DPTR,A
   \   000041   A3           INC     DPTR
   \   000042   F0           MOVX    @DPTR,A
    238          
    239            // Setup for the flash command's destination address - Group 1
    240            SampleApp_Flash_DstAddr.addrMode = (afAddrMode_t)afAddrGroup;
   \   000043   90....       MOV     DPTR,#SampleApp_Flash_DstAddr + 8
   \   000046   7401         MOV     A,#0x1
   \   000048   F0           MOVX    @DPTR,A
    241            SampleApp_Flash_DstAddr.endPoint = SAMPLEAPP_ENDPOINT;
   \   000049   A3           INC     DPTR
   \   00004A   7414         MOV     A,#0x14
   \   00004C   F0           MOVX    @DPTR,A
    242            SampleApp_Flash_DstAddr.addr.shortAddr = SAMPLEAPP_FLASH_GROUP;
   \   00004D   90....       MOV     DPTR,#SampleApp_Flash_DstAddr
   \   000050   7401         MOV     A,#0x1
   \   000052   F0           MOVX    @DPTR,A
   \   000053   A3           INC     DPTR
   \   000054   E4           CLR     A
   \   000055   F0           MOVX    @DPTR,A
    243          
    244            // Fill out the endpoint description.
    245            SampleApp_epDesc.endPoint = SAMPLEAPP_ENDPOINT;
   \   000056   90....       MOV     DPTR,#SampleApp_epDesc
   \   000059   7414         MOV     A,#0x14
   \   00005B   F0           MOVX    @DPTR,A
    246            SampleApp_epDesc.task_id = &SampleApp_TaskID;
   \   00005C   A3           INC     DPTR
   \   00005D   74..         MOV     A,#SampleApp_TaskID & 0xff
   \   00005F   F0           MOVX    @DPTR,A
   \   000060   A3           INC     DPTR
   \   000061   74..         MOV     A,#(SampleApp_TaskID >> 8) & 0xff
   \   000063   F0           MOVX    @DPTR,A
    247            SampleApp_epDesc.simpleDesc
    248                      = (SimpleDescriptionFormat_t *)&SampleApp_SimpleDesc;
   \   000064   A3           INC     DPTR
   \   000065   74..         MOV     A,#SampleApp_SimpleDesc & 0xff
   \   000067   F0           MOVX    @DPTR,A
   \   000068   A3           INC     DPTR
   \   000069   74..         MOV     A,#(SampleApp_SimpleDesc >> 8) & 0xff
   \   00006B   F0           MOVX    @DPTR,A
    249            SampleApp_epDesc.latencyReq = noLatencyReqs;
   \   00006C   A3           INC     DPTR
   \   00006D   E4           CLR     A
   \   00006E   F0           MOVX    @DPTR,A
    250          
    251            // Register the endpoint description with the AF
    252            afRegister( &SampleApp_epDesc );
   \   00006F                ; Setup parameters for call to function afRegister
   \   00006F   7A..         MOV     R2,#SampleApp_epDesc & 0xff
   \   000071   7B..         MOV     R3,#(SampleApp_epDesc >> 8) & 0xff
   \   000073   12....       LCALL   ??afRegister?relay
    253          
    254            // Register for all key events - This app will handle all key events
    255            RegisterForKeys( SampleApp_TaskID );
   \   000076                ; Setup parameters for call to function RegisterForKeys
   \   000076   90....       MOV     DPTR,#SampleApp_TaskID
   \   000079   E0           MOVX    A,@DPTR
   \   00007A   F9           MOV     R1,A
   \   00007B   12....       LCALL   ??RegisterForKeys?relay
    256          
    257            // By default, all devices start out in Group 1
    258            SampleApp_Group.ID = 0x0001;
   \   00007E   90....       MOV     DPTR,#SampleApp_Group
   \   000081   7401         MOV     A,#0x1
   \   000083   F0           MOVX    @DPTR,A
   \   000084   A3           INC     DPTR
   \   000085   E4           CLR     A
   \   000086   F0           MOVX    @DPTR,A
    259            osal_memcpy( SampleApp_Group.name, "Group 1", 7 );
   \   000087                ; Setup parameters for call to function osal_memcpy
   \   000087   75....       MOV     ?V0 + 0,#`?<Constant "Group 1">` & 0xff
   \   00008A   75....       MOV     ?V0 + 1,#(`?<Constant "Group 1">` >> 8) & 0xff
   \   00008D   F5..         MOV     ?V0 + 2,A
   \   00008F   78..         MOV     R0,#?V0 + 0
   \   000091   12....       LCALL   ?PUSH_XSTACK_I_THREE
   \   000094   7C07         MOV     R4,#0x7
   \   000096   7D00         MOV     R5,#0x0
   \   000098   7A..         MOV     R2,#(SampleApp_Group + 2) & 0xff
   \   00009A   7B..         MOV     R3,#((SampleApp_Group + 2) >> 8) & 0xff
   \   00009C   12....       LCALL   ??osal_memcpy?relay
   \   00009F   7403         MOV     A,#0x3
   \   0000A1   12....       LCALL   ?DEALLOC_XSTACK8
    260            aps_AddGroup( SAMPLEAPP_ENDPOINT, &SampleApp_Group );
   \   0000A4                ; Setup parameters for call to function aps_AddGroup
   \   0000A4   7A..         MOV     R2,#SampleApp_Group & 0xff
   \   0000A6   7B..         MOV     R3,#(SampleApp_Group >> 8) & 0xff
   \   0000A8   7914         MOV     R1,#0x14
   \   0000AA   12....       LCALL   ??aps_AddGroup?relay
    261            
    262            LCD_P8x16Str(0, 0,"lzq");
   \   0000AD                ; Setup parameters for call to function LCD_P8x16Str
   \   0000AD   7C..         MOV     R4,#`?<Constant "lzq">` & 0xff
   \   0000AF   7D..         MOV     R5,#(`?<Constant "lzq">` >> 8) & 0xff
   \   0000B1   7A00         MOV     R2,#0x0
   \   0000B3   7900         MOV     R1,#0x0
   \   0000B5   12....       LCALL   ??LCD_P8x16Str?relay
    263          #if defined ( LCD_SUPPORTED )
    264           // HalLcdWriteString( "SampleApp", HAL_LCD_LINE_1 );
    265            
    266          #endif
    267          }
   \   0000B8                REQUIRE ?Subroutine0
   \   0000B8                REQUIRE P0DIR
   \   0000B8                REQUIRE P0SEL
   \   0000B8                ; // Fall through to label ?Subroutine0

   \                                 In  segment BANKED_CODE, align 1, keep-with-next
   \                     ?Subroutine0:
   \   000000   7F03         MOV     R7,#0x3
   \   000002   02....       LJMP    ?BANKED_LEAVE_XDATA
    268          
    269          /*********************************************************************
    270           * @fn      SampleApp_ProcessEvent
    271           *
    272           * @brief   Generic Application Task event processor.  This function
    273           *          is called to process all events for the task.  Events
    274           *          include timers, messages and any other user defined events.
    275           *
    276           * @param   task_id  - The OSAL assigned task ID.
    277           * @param   events - events to process.  This is a bit map and can
    278           *                   contain more than one event.
    279           *
    280           * @return  none
    281           */

   \                                 In  segment BANKED_CODE, align 1, keep-with-next
    282          uint16 SampleApp_ProcessEvent( uint8 task_id, uint16 events )
   \                     SampleApp_ProcessEvent:
    283          {
   \   000000   74F4         MOV     A,#-0xc
   \   000002   12....       LCALL   ?BANKED_ENTER_XDATA
   \   000005                ; Saved register size: 12
   \   000005                ; Auto size: 0
   \   000005   EA           MOV     A,R2
   \   000006   FE           MOV     R6,A
   \   000007   EB           MOV     A,R3
   \   000008   FF           MOV     R7,A
    284            afIncomingMSGPacket_t *MSGpkt;
    285            (void)task_id;  // Intentionally unreferenced parameter
    286          
    287            if ( events & SYS_EVENT_MSG )
   \   000009   5480         ANL     A,#0x80
   \   00000B   6078         JZ      ??SampleApp_ProcessEvent_0
    288            {
    289              MSGpkt = (afIncomingMSGPacket_t *)osal_msg_receive( SampleApp_TaskID );
   \   00000D                ; Setup parameters for call to function osal_msg_receive
   \   00000D   802B         SJMP    ??SampleApp_ProcessEvent_1
    290              while ( MSGpkt )
    291              {
    292                switch ( MSGpkt->hdr.event )
    293                {        
    294                  // Received when a key is pressed
    295                  case KEY_CHANGE:
    296                    SampleApp_HandleKeys( ((keyChange_t *)MSGpkt)->state, ((keyChange_t *)MSGpkt)->keys );
    297                    break;
    298          
    299                  // Received when a messages is received (OTA) for this endpoint
    300                  case AF_INCOMING_MSG_CMD:
    301                    SampleApp_MessageMSGCB( MSGpkt );
    302                    break;
    303          
    304                  // Received whenever the device changes state in the network
    305                  case ZDO_STATE_CHANGE:
    306                    SampleApp_NwkState = (devStates_t)(MSGpkt->hdr.status);
   \                     ??SampleApp_ProcessEvent_2:
   \   00000F   A3           INC     DPTR
   \   000010   E0           MOVX    A,@DPTR
   \   000011   90....       MOV     DPTR,#SampleApp_NwkState
   \   000014   F0           MOVX    @DPTR,A
    307                    if ( (SampleApp_NwkState == DEV_ZB_COORD) ||
    308                           (SampleApp_NwkState == DEV_ROUTER)
    309                        || (SampleApp_NwkState == DEV_END_DEVICE) )
   \   000015   6409         XRL     A,#0x9
   \   000017   600A         JZ      ??SampleApp_ProcessEvent_3
   \   000019   E0           MOVX    A,@DPTR
   \   00001A   6407         XRL     A,#0x7
   \   00001C   6005         JZ      ??SampleApp_ProcessEvent_3
   \   00001E   E0           MOVX    A,@DPTR
   \   00001F   6406         XRL     A,#0x6
   \   000021   7010         JNZ     ??SampleApp_ProcessEvent_4
    310                    {
    311                      // Start sending the periodic message in a regular interval.
    312                      osal_start_timerEx( SampleApp_TaskID,
    313                                        SAMPLEAPP_SEND_PERIODIC_MSG_EVT,
    314                                        SAMPLEAPP_SEND_PERIODIC_MSG_TIMEOUT );
   \                     ??SampleApp_ProcessEvent_3:
   \   000023                ; Setup parameters for call to function osal_start_timerEx
   \   000023   7CB8         MOV     R4,#-0x48
   \   000025   7D0B         MOV     R5,#0xb
   \   000027   7A01         MOV     R2,#0x1
   \   000029   7B00         MOV     R3,#0x0
   \   00002B   90....       MOV     DPTR,#SampleApp_TaskID
   \   00002E   E0           MOVX    A,@DPTR
   \   00002F   F9           MOV     R1,A
   \   000030   12....       LCALL   ??osal_start_timerEx?relay
    315                    }
    316                    else
    317                    {
    318                      // Device is no longer in the network
    319                    }
    320                    break;
    321          
    322                  default:
    323                    break;
    324                }
    325          
    326                // Release the memory
    327                osal_msg_deallocate( (uint8 *)MSGpkt );
   \                     ??SampleApp_ProcessEvent_4:
   \   000033                ; Setup parameters for call to function osal_msg_deallocate
   \   000033   AA..         MOV     R2,?V0 + 0
   \   000035   AB..         MOV     R3,?V0 + 1
   \   000037   12....       LCALL   ??osal_msg_deallocate?relay
    328          
    329                // Next - if one is available
    330                MSGpkt = (afIncomingMSGPacket_t *)osal_msg_receive( SampleApp_TaskID );
   \   00003A                ; Setup parameters for call to function osal_msg_receive
   \                     ??SampleApp_ProcessEvent_1:
   \   00003A   90....       MOV     DPTR,#SampleApp_TaskID
   \   00003D   E0           MOVX    A,@DPTR
   \   00003E   F9           MOV     R1,A
   \   00003F   12....       LCALL   ??osal_msg_receive?relay
   \   000042   8A..         MOV     ?V0 + 0,R2
   \   000044   8B..         MOV     ?V0 + 1,R3
   \   000046   E5..         MOV     A,?V0 + 0
   \   000048   45..         ORL     A,?V0 + 1
   \   00004A   6032         JZ      ??SampleApp_ProcessEvent_5
   \   00004C   85..82       MOV     DPL,?V0 + 0
   \   00004F   85..83       MOV     DPH,?V0 + 1
   \   000052   E0           MOVX    A,@DPTR
   \   000053   24E6         ADD     A,#-0x1a
   \   000055   601E         JZ      ??SampleApp_ProcessEvent_6
   \   000057   245A         ADD     A,#0x5a
   \   000059   6006         JZ      ??SampleApp_ProcessEvent_7
   \   00005B   24EF         ADD     A,#-0x11
   \   00005D   60B0         JZ      ??SampleApp_ProcessEvent_2
   \   00005F   80D2         SJMP    ??SampleApp_ProcessEvent_4
   \                     ??SampleApp_ProcessEvent_7:
   \   000061                ; Setup parameters for call to function SampleApp_HandleKeys
   \   000061   A3           INC     DPTR
   \   000062   A3           INC     DPTR
   \   000063   A3           INC     DPTR
   \   000064   E0           MOVX    A,@DPTR
   \   000065   FA           MOV     R2,A
   \   000066   85..82       MOV     DPL,?V0 + 0
   \   000069   85..83       MOV     DPH,?V0 + 1
   \   00006C   A3           INC     DPTR
   \   00006D   A3           INC     DPTR
   \   00006E   E0           MOVX    A,@DPTR
   \   00006F   F9           MOV     R1,A
   \   000070   12....       LCALL   ??SampleApp_HandleKeys?relay
   \   000073   80BE         SJMP    ??SampleApp_ProcessEvent_4
   \                     ??SampleApp_ProcessEvent_6:
   \   000075                ; Setup parameters for call to function SampleApp_MessageMSGCB
   \   000075   AA..         MOV     R2,?V0 + 0
   \   000077   AB..         MOV     R3,?V0 + 1
   \   000079   12....       LCALL   ??SampleApp_MessageMSGCB?relay
   \   00007C   80B5         SJMP    ??SampleApp_ProcessEvent_4
    331              }
    332          
    333              // return unprocessed events
    334              return (events ^ SYS_EVENT_MSG);
   \                     ??SampleApp_ProcessEvent_5:
   \   00007E   EE           MOV     A,R6
   \   00007F   FA           MOV     R2,A
   \   000080   EF           MOV     A,R7
   \   000081   6480         XRL     A,#0x80
   \   000083   8024         SJMP    ??SampleApp_ProcessEvent_8
    335            }
    336          
    337            // Send a message out - This event is generated by a timer
    338            //  (setup in SampleApp_Init()).
    339            if ( events & SAMPLEAPP_SEND_PERIODIC_MSG_EVT )
   \                     ??SampleApp_ProcessEvent_0:
   \   000085   EE           MOV     A,R6
   \   000086   A2E0         MOV     C,0xE0 /* A   */.0
   \   000088   5022         JNC     ??SampleApp_ProcessEvent_9
    340            {
    341              // Send the periodic message
    342              SampleApp_SendPeriodicMessage();
   \   00008A                ; Setup parameters for call to function SampleApp_SendPeriodicMessage
   \   00008A   12....       LCALL   ??SampleApp_SendPeriodicMessage?relay
    343          
    344              // Setup to send message again in normal period (+ a little jitter)
    345              osal_start_timerEx( SampleApp_TaskID, SAMPLEAPP_SEND_PERIODIC_MSG_EVT,
    346                  (SAMPLEAPP_SEND_PERIODIC_MSG_TIMEOUT + (osal_rand() & 0x00FF)) );
   \   00008D                ; Setup parameters for call to function osal_rand
   \   00008D   12....       LCALL   ??osal_rand?relay
   \   000090                ; Setup parameters for call to function osal_start_timerEx
   \   000090   EA           MOV     A,R2
   \   000091   24B8         ADD     A,#-0x48
   \   000093   FC           MOV     R4,A
   \   000094   E4           CLR     A
   \   000095   340B         ADDC    A,#0xb
   \   000097   FD           MOV     R5,A
   \   000098   7A01         MOV     R2,#0x1
   \   00009A   7B00         MOV     R3,#0x0
   \   00009C   90....       MOV     DPTR,#SampleApp_TaskID
   \   00009F   E0           MOVX    A,@DPTR
   \   0000A0   F9           MOV     R1,A
   \   0000A1   12....       LCALL   ??osal_start_timerEx?relay
    347          
    348              // return unprocessed events
    349              return (events ^ SAMPLEAPP_SEND_PERIODIC_MSG_EVT);
   \   0000A4   EE           MOV     A,R6
   \   0000A5   6401         XRL     A,#0x1
   \   0000A7   FA           MOV     R2,A
   \   0000A8   EF           MOV     A,R7
   \                     ??SampleApp_ProcessEvent_8:
   \   0000A9   FB           MOV     R3,A
   \   0000AA   8004         SJMP    ??SampleApp_ProcessEvent_10
    350            }
    351          
    352            // Discard unknown events
    353            return 0;
   \                     ??SampleApp_ProcessEvent_9:
   \   0000AC   7A00         MOV     R2,#0x0
   \   0000AE   7B00         MOV     R3,#0x0
   \                     ??SampleApp_ProcessEvent_10:
   \   0000B0                REQUIRE ?Subroutine1
   \   0000B0                ; // Fall through to label ?Subroutine1
    354          }

   \                                 In  segment BANKED_CODE, align 1, keep-with-next
   \                     ?Subroutine1:
   \   000000   7F04         MOV     R7,#0x4
   \   000002   02....       LJMP    ?BANKED_LEAVE_XDATA
    355          
    356          /*********************************************************************
    357           * Event Generation Functions
    358           */
    359          /*********************************************************************
    360           * @fn      SampleApp_HandleKeys
    361           *
    362           * @brief   Handles all key events for this device.
    363           *
    364           * @param   shift - true if in shift/alt.
    365           * @param   keys - bit field for key events. Valid entries:
    366           *                 HAL_KEY_SW_2
    367           *                 HAL_KEY_SW_1
    368           *
    369           * @return  none
    370           */

   \                                 In  segment BANKED_CODE, align 1, keep-with-next
    371          void SampleApp_HandleKeys( uint8 shift, uint8 keys )
   \                     SampleApp_HandleKeys:
    372          {
   \   000000   74F6         MOV     A,#-0xa
   \   000002   12....       LCALL   ?BANKED_ENTER_XDATA
   \   000005                ; Saved register size: 10
   \   000005                ; Auto size: 0
   \   000005   EA           MOV     A,R2
   \   000006   FE           MOV     R6,A
    373            (void)shift;  // Intentionally unreferenced parameter
    374            
    375            if ( keys & HAL_KEY_SW_1 )
   \   000007   A2E0         MOV     C,0xE0 /* A   */.0
   \   000009   5007         JNC     ??SampleApp_HandleKeys_0
    376            {
    377              /* This key sends the Flash Command is sent to Group 1.
    378               * This device will not receive the Flash Command from this
    379               * device (even if it belongs to group 1).
    380               */
    381              SampleApp_SendFlashMessage( SAMPLEAPP_FLASH_DURATION );
   \   00000B                ; Setup parameters for call to function SampleApp_SendFlashMessage
   \   00000B   7AE8         MOV     R2,#-0x18
   \   00000D   7B03         MOV     R3,#0x3
   \   00000F   12....       LCALL   ??SampleApp_SendFlashMessage?relay
    382            }
    383          
    384            if ( keys & HAL_KEY_SW_2 )
   \                     ??SampleApp_HandleKeys_0:
   \   000012   EE           MOV     A,R6
   \   000013   A2E1         MOV     C,0xE0 /* A   */.1
   \   000015   5024         JNC     ??SampleApp_HandleKeys_1
    385            {
    386              /* The Flashr Command is sent to Group 1.
    387               * This key toggles this device in and out of group 1.
    388               * If this device doesn't belong to group 1, this application
    389               * will not receive the Flash command sent to group 1.
    390               */
    391              aps_Group_t *grp;
    392              grp = aps_FindGroup( SAMPLEAPP_ENDPOINT, SAMPLEAPP_FLASH_GROUP );
    393              if ( grp )
   \   000017                ; Setup parameters for call to function aps_FindGroup
   \   000017   7A01         MOV     R2,#0x1
   \   000019   7B00         MOV     R3,#0x0
   \   00001B   7914         MOV     R1,#0x14
   \   00001D   12....       LCALL   ??aps_FindGroup?relay
   \   000020   8B..         MOV     ?V0 + 1,R3
   \   000022   EA           MOV     A,R2
   \   000023   45..         ORL     A,?V0 + 1
   \   000025   600B         JZ      ??SampleApp_HandleKeys_2
    394              {
    395                // Remove from the group
    396                aps_RemoveGroup( SAMPLEAPP_ENDPOINT, SAMPLEAPP_FLASH_GROUP );
   \   000027                ; Setup parameters for call to function aps_RemoveGroup
   \   000027   7A01         MOV     R2,#0x1
   \   000029   7B00         MOV     R3,#0x0
   \   00002B   7914         MOV     R1,#0x14
   \   00002D   12....       LCALL   ??aps_RemoveGroup?relay
   \   000030   8009         SJMP    ??SampleApp_HandleKeys_1
    397              }
    398              else
    399              {
    400                // Add to the flash group
    401                aps_AddGroup( SAMPLEAPP_ENDPOINT, &SampleApp_Group );
   \                     ??SampleApp_HandleKeys_2:
   \   000032                ; Setup parameters for call to function aps_AddGroup
   \   000032   7A..         MOV     R2,#SampleApp_Group & 0xff
   \   000034   7B..         MOV     R3,#(SampleApp_Group >> 8) & 0xff
   \   000036   7914         MOV     R1,#0x14
   \   000038   12....       LCALL   ??aps_AddGroup?relay
    402              }
    403            }
    404          }
   \                     ??SampleApp_HandleKeys_1:
   \   00003B                REQUIRE ?Subroutine2
   \   00003B                ; // Fall through to label ?Subroutine2

   \                                 In  segment BANKED_CODE, align 1, keep-with-next
   \                     ?Subroutine2:
   \   000000   7F02         MOV     R7,#0x2
   \   000002   02....       LJMP    ?BANKED_LEAVE_XDATA
    405          
    406          /*********************************************************************
    407           * LOCAL FUNCTIONS
    408           */
    409          
    410          /*********************************************************************
    411           * @fn      SampleApp_MessageMSGCB
    412           *
    413           * @brief   Data message processor callback.  This function processes
    414           *          any incoming data - probably from other devices.  So, based
    415           *          on cluster ID, perform the intended action.
    416           *
    417           * @param   none
    418           *
    419           * @return  none
    420           */

   \                                 In  segment BANKED_CODE, align 1, keep-with-next
    421          void SampleApp_MessageMSGCB( afIncomingMSGPacket_t *pkt ) //接收数据
   \                     SampleApp_MessageMSGCB:
    422          {
   \   000000   74F4         MOV     A,#-0xc
   \   000002   12....       LCALL   ?BANKED_ENTER_XDATA
   \   000005                ; Saved register size: 12
   \   000005                ; Auto size: 6
   \   000005   74FA         MOV     A,#-0x6
   \   000007   12....       LCALL   ?ALLOC_XSTACK8
   \   00000A   EA           MOV     A,R2
   \   00000B   FE           MOV     R6,A
   \   00000C   EB           MOV     A,R3
   \   00000D   FF           MOV     R7,A
    423            uint16 flashTime;
    424            char temp1[3], temp2[3];
    425          //  memset(temp1, 0, sizeof(temp1));
    426          //  memset(temp2, 0, sizeof(temp2));
    427          
    428            switch ( pkt->clusterId )
   \   00000E   8E82         MOV     DPL,R6
   \   000010   8F83         MOV     DPH,R7
   \   000012   A3           INC     DPTR
   \   000013   A3           INC     DPTR
   \   000014   A3           INC     DPTR
   \   000015   A3           INC     DPTR
   \   000016   E0           MOVX    A,@DPTR
   \   000017   F5..         MOV     ?V0 + 0,A
   \   000019   A3           INC     DPTR
   \   00001A   E0           MOVX    A,@DPTR
   \   00001B   F5..         MOV     ?V0 + 1,A
   \   00001D   78..         MOV     R0,#?V0 + 0
   \   00001F   12....       LCALL   ?US_SWITCH_DENSE
   \                     `?<Jumptable for SampleApp_MessageMSGCB>_0`:
   \   000022   0100         DW        1
   \   000024   04           DB        4
   \   000025   ....         DW        ??SampleApp_MessageMSGCB_0
   \   000027   ....         DW        ??SampleApp_MessageMSGCB_1
   \   000029   ....         DW        ??SampleApp_MessageMSGCB_2
   \   00002B   ....         DW        ??SampleApp_MessageMSGCB_0
   \   00002D   ....         DW        ??SampleApp_MessageMSGCB_3
   \   00002F   ....         DW        ??SampleApp_MessageMSGCB_4
    429            {
    430              case SAMPLEAPP_ROUTER_ONE:
    431                HalUARTWrite(0, "Rx Router one:", 14);        //提示信息
   \                     ??SampleApp_MessageMSGCB_1:
   \   000031                ; Setup parameters for call to function HalUARTWrite
   \   000031   7C0E         MOV     R4,#0xe
   \   000033   7D00         MOV     R5,#0x0
   \   000035   7A..         MOV     R2,#`?<Constant "Rx Router one:">` & 0xff
   \   000037   7B..         MOV     R3,#(`?<Constant "Rx Router one:">` >> 8) & 0xff
   \   000039   7900         MOV     R1,#0x0
   \   00003B   12....       LCALL   ??HalUARTWrite?relay
    432                HalUARTWrite(0, pkt->cmd.Data, pkt->cmd.DataLength); //输出接收到的数据
   \   00003E                ; Setup parameters for call to function HalUARTWrite
   \   00003E   EE           MOV     A,R6
   \   00003F   2420         ADD     A,#0x20
   \   000041   F582         MOV     DPL,A
   \   000043   EF           MOV     A,R7
   \   000044   3400         ADDC    A,#0x0
   \   000046   F583         MOV     DPH,A
   \   000048   12....       LCALL   ??Subroutine6_0 & 0xFFFF
   \                     ??CrossCallReturnLabel_4:
   \   00004B   EE           MOV     A,R6
   \   00004C   2422         ADD     A,#0x22
   \   00004E   F582         MOV     DPL,A
   \   000050   EF           MOV     A,R7
   \   000051   3400         ADDC    A,#0x0
   \   000053   F583         MOV     DPH,A
   \   000055   E0           MOVX    A,@DPTR
   \   000056   FA           MOV     R2,A
   \   000057   A3           INC     DPTR
   \   000058   E0           MOVX    A,@DPTR
   \   000059   FB           MOV     R3,A
   \   00005A   7900         MOV     R1,#0x0
   \   00005C   12....       LCALL   ??HalUARTWrite?relay
    433                HalUARTWrite(0, "\n", 1);         //回车换行
   \   00005F                ; Setup parameters for call to function HalUARTWrite
   \   00005F   7C01         MOV     R4,#0x1
   \   000061   7D00         MOV     R5,#0x0
   \   000063   7A..         MOV     R2,#`?<Constant "\\n">` & 0xff
   \   000065   7B..         MOV     R3,#(`?<Constant "\\n">` >> 8) & 0xff
   \   000067   02....       LJMP    ??SampleApp_MessageMSGCB_5 & 0xFFFF
    434                
    435                break;
    436              
    437              case SAMPLEAPP_TERMINAL_ONE:        //终端1
    438                  HalUARTWrite(0, "Rx Terminal one:", 16);        //提示信息
   \                     ??SampleApp_MessageMSGCB_3:
   \   00006A                ; Setup parameters for call to function HalUARTWrite
   \   00006A   7C10         MOV     R4,#0x10
   \   00006C   7D00         MOV     R5,#0x0
   \   00006E   7A..         MOV     R2,#`?<Constant "Rx Terminal one:">` & 0xff
   \   000070   7B..         MOV     R3,#(`?<Constant "Rx Terminal one:">` >> 8) & 0xff
   \   000072   7900         MOV     R1,#0x0
   \   000074   12....       LCALL   ??HalUARTWrite?relay
    439                  HalUARTWrite(0, pkt->cmd.Data, pkt->cmd.DataLength); //输出接收到的数据
   \   000077   12....       LCALL   ?Subroutine3 & 0xFFFF
   \                     ??CrossCallReturnLabel_0:
   \   00007A   12....       LCALL   ??HalUARTWrite?relay
    440                  HalUARTWrite(0, "\r\n", 2);         //回车换行
   \   00007D   75....       MOV     ?V0 + 0,#`?<Constant "\\r\\n">` & 0xff
   \   000080   75....       MOV     ?V0 + 1,#(`?<Constant "\\r\\n">` >> 8) & 0xff
   \   000083                ; Setup parameters for call to function HalUARTWrite
   \   000083   7C02         MOV     R4,#0x2
   \   000085   7D00         MOV     R5,#0x0
   \   000087   AA..         MOV     R2,?V0 + 0
   \   000089   AB..         MOV     R3,?V0 + 1
   \   00008B   7900         MOV     R1,#0x0
   \   00008D   12....       LCALL   ??HalUARTWrite?relay
    441                  memcpy(temp1, pkt->cmd.Data, pkt->cmd.DataLength);
   \   000090                ; Setup parameters for call to function memcpy
   \   000090   85..82       MOV     DPL,?V0 + 2
   \   000093   85..83       MOV     DPH,?V0 + 3
   \   000096   12....       LCALL   ?PUSH_XSTACK8_X_TWO
   \   000099   12....       LCALL   ?Subroutine5 & 0xFFFF
   \                     ??CrossCallReturnLabel_6:
   \   00009C   7405         MOV     A,#0x5
   \   00009E   12....       LCALL   ?XSTACK_DISP0_8
   \   0000A1   AA82         MOV     R2,DPL
   \   0000A3   AB83         MOV     R3,DPH
   \   0000A5   12....       LCALL   ??memcpy?relay
   \   0000A8   7402         MOV     A,#0x2
   \   0000AA   12....       LCALL   ?DEALLOC_XSTACK8
    442                  temp1[2] = '\0';
   \   0000AD   7405         MOV     A,#0x5
   \   0000AF   12....       LCALL   ?XSTACK_DISP0_8
   \   0000B2   E4           CLR     A
   \   0000B3   F0           MOVX    @DPTR,A
    443                  HalUARTWrite(0, "temp1:", 6);
   \   0000B4                ; Setup parameters for call to function HalUARTWrite
   \   0000B4   7C06         MOV     R4,#0x6
   \   0000B6   FD           MOV     R5,A
   \   0000B7   7A..         MOV     R2,#`?<Constant "temp1:">` & 0xff
   \   0000B9   7B..         MOV     R3,#(`?<Constant "temp1:">` >> 8) & 0xff
   \   0000BB   F9           MOV     R1,A
   \   0000BC   12....       LCALL   ??HalUARTWrite?relay
    444                  HalUARTWrite(0, temp1, 2);  
                                         ^
Warning[Pe167]: argument of type "char *" is incompatible with parameter of
          type "unsigned char *"
   \   0000BF                ; Setup parameters for call to function HalUARTWrite
   \   0000BF   7C02         MOV     R4,#0x2
   \   0000C1   7D00         MOV     R5,#0x0
   \   0000C3   7403         MOV     A,#0x3
   \   0000C5   12....       LCALL   ?XSTACK_DISP0_8
   \   0000C8   805F         SJMP    ??SampleApp_MessageMSGCB_6
    445                  HalUARTWrite(0, "\r\n", 2);         //回车换行
    446                  break;
    447                
    448              case SAMPLEAPP_TERMINAL_TWO:        //终端2
    449                  HalUARTWrite(0, "Rx Terminal two:", 16);        //提示信息
   \                     ??SampleApp_MessageMSGCB_4:
   \   0000CA                ; Setup parameters for call to function HalUARTWrite
   \   0000CA   7C10         MOV     R4,#0x10
   \   0000CC   7D00         MOV     R5,#0x0
   \   0000CE   7A..         MOV     R2,#`?<Constant "Rx Terminal two:">` & 0xff
   \   0000D0   7B..         MOV     R3,#(`?<Constant "Rx Terminal two:">` >> 8) & 0xff
   \   0000D2   7900         MOV     R1,#0x0
   \   0000D4   12....       LCALL   ??HalUARTWrite?relay
    450                  HalUARTWrite(0, pkt->cmd.Data, pkt->cmd.DataLength); //输出接收到的数据
   \   0000D7   12....       LCALL   ?Subroutine3 & 0xFFFF
   \                     ??CrossCallReturnLabel_1:
   \   0000DA   12....       LCALL   ??HalUARTWrite?relay
    451                  HalUARTWrite(0, "\r\n", 2);         //回车换行
   \   0000DD   75....       MOV     ?V0 + 0,#`?<Constant "\\r\\n">` & 0xff
   \   0000E0   75....       MOV     ?V0 + 1,#(`?<Constant "\\r\\n">` >> 8) & 0xff
   \   0000E3                ; Setup parameters for call to function HalUARTWrite
   \   0000E3   7C02         MOV     R4,#0x2
   \   0000E5   7D00         MOV     R5,#0x0
   \   0000E7   AA..         MOV     R2,?V0 + 0
   \   0000E9   AB..         MOV     R3,?V0 + 1
   \   0000EB   7900         MOV     R1,#0x0
   \   0000ED   12....       LCALL   ??HalUARTWrite?relay
    452                  memcpy(temp2, pkt->cmd.Data, pkt->cmd.DataLength);
   \   0000F0                ; Setup parameters for call to function memcpy
   \   0000F0   85..82       MOV     DPL,?V0 + 2
   \   0000F3   85..83       MOV     DPH,?V0 + 3
   \   0000F6   12....       LCALL   ?PUSH_XSTACK8_X_TWO
   \   0000F9   12....       LCALL   ?Subroutine5 & 0xFFFF
   \                     ??CrossCallReturnLabel_7:
   \   0000FC   7402         MOV     A,#0x2
   \   0000FE   12....       LCALL   ?XSTACK_DISP0_8
   \   000101   AA82         MOV     R2,DPL
   \   000103   AB83         MOV     R3,DPH
   \   000105   12....       LCALL   ??memcpy?relay
   \   000108   7402         MOV     A,#0x2
   \   00010A   12....       LCALL   ?DEALLOC_XSTACK8
    453                  temp2[2] = '\0';
   \   00010D   7402         MOV     A,#0x2
   \   00010F   12....       LCALL   ?XSTACK_DISP0_8
   \   000112   E4           CLR     A
   \   000113   F0           MOVX    @DPTR,A
    454                  HalUARTWrite(0, "temp2:", 6);
   \   000114                ; Setup parameters for call to function HalUARTWrite
   \   000114   7C06         MOV     R4,#0x6
   \   000116   FD           MOV     R5,A
   \   000117   7A..         MOV     R2,#`?<Constant "temp2:">` & 0xff
   \   000119   7B..         MOV     R3,#(`?<Constant "temp2:">` >> 8) & 0xff
   \   00011B   F9           MOV     R1,A
   \   00011C   12....       LCALL   ??HalUARTWrite?relay
    455                  HalUARTWrite(0, temp2, 2);  
                                         ^
Warning[Pe167]: argument of type "char *" is incompatible with parameter of
          type "unsigned char *"
   \   00011F                ; Setup parameters for call to function HalUARTWrite
   \   00011F   7C02         MOV     R4,#0x2
   \   000121   7D00         MOV     R5,#0x0
   \   000123   85..82       MOV     DPL,?XSP + 0
   \   000126   85..83       MOV     DPH,?XSP + 1
   \                     ??SampleApp_MessageMSGCB_6:
   \   000129   AA82         MOV     R2,DPL
   \   00012B   AB83         MOV     R3,DPH
   \   00012D   7900         MOV     R1,#0x0
   \   00012F   12....       LCALL   ??HalUARTWrite?relay
    456                  HalUARTWrite(0, "\r\n", 2);         //回车换行
   \   000132                ; Setup parameters for call to function HalUARTWrite
   \   000132   7C02         MOV     R4,#0x2
   \   000134   7D00         MOV     R5,#0x0
   \   000136   AA..         MOV     R2,?V0 + 0
   \   000138   AB..         MOV     R3,?V0 + 1
   \                     ??SampleApp_MessageMSGCB_5:
   \   00013A   7900         MOV     R1,#0x0
   \   00013C   12....       LCALL   ??HalUARTWrite?relay
    457                  break;
   \   00013F   803D         SJMP    ??SampleApp_MessageMSGCB_0
    458          
    459              case SAMPLEAPP_FLASH_CLUSTERID:     //此实验没有使用，到后面实验详解
    460                flashTime = BUILD_UINT16(pkt->cmd.Data[1], pkt->cmd.Data[2] );
    461                HalLedBlink( HAL_LED_4, 4, 50, (flashTime / 4) );
   \                     ??SampleApp_MessageMSGCB_2:
   \   000141   EE           MOV     A,R6
   \   000142   2422         ADD     A,#0x22
   \   000144   FE           MOV     R6,A
   \   000145   EF           MOV     A,R7
   \   000146   3400         ADDC    A,#0x0
   \   000148   FF           MOV     R7,A
   \   000149   8E82         MOV     DPL,R6
   \   00014B   8F83         MOV     DPH,R7
   \   00014D   E0           MOVX    A,@DPTR
   \   00014E   F8           MOV     R0,A
   \   00014F   A3           INC     DPTR
   \   000150   E0           MOVX    A,@DPTR
   \   000151   F9           MOV     R1,A
   \   000152                ; Setup parameters for call to function HalLedBlink
   \   000152   8882         MOV     DPL,R0
   \   000154   8983         MOV     DPH,R1
   \   000156   A3           INC     DPTR
   \   000157   E0           MOVX    A,@DPTR
   \   000158   FA           MOV     R2,A
   \   000159   8882         MOV     DPL,R0
   \   00015B   8983         MOV     DPH,R1
   \   00015D   A3           INC     DPTR
   \   00015E   A3           INC     DPTR
   \   00015F   E0           MOVX    A,@DPTR
   \   000160   F9           MOV     R1,A
   \   000161   EA           MOV     A,R2
   \   000162   2400         ADD     A,#0x0
   \   000164   F5..         MOV     ?V0 + 0,A
   \   000166   E4           CLR     A
   \   000167   39           ADDC    A,R1
   \   000168   F5..         MOV     ?V0 + 1,A
   \   00016A   7402         MOV     A,#0x2
   \   00016C   78..         MOV     R0,#?V0 + 0
   \   00016E   12....       LCALL   ?US_SHR
   \   000171   AC..         MOV     R4,?V0 + 0
   \   000173   AD..         MOV     R5,?V0 + 1
   \   000175   7B32         MOV     R3,#0x32
   \   000177   7A04         MOV     R2,#0x4
   \   000179   7908         MOV     R1,#0x8
   \   00017B   12....       LCALL   ??HalLedBlink?relay
    462                break;
    463            }
    464            
    465          }
   \                     ??SampleApp_MessageMSGCB_0:
   \   00017E   7406         MOV     A,#0x6
   \   000180   12....       LCALL   ?DEALLOC_XSTACK8
   \   000183   02....       LJMP    ?Subroutine1 & 0xFFFF

   \                                 In  segment BANKED_CODE, align 1, keep-with-next
   \                     ?Subroutine3:
   \   000000   EE           MOV     A,R6
   \   000001   2420         ADD     A,#0x20
   \   000003   F5..         MOV     ?V0 + 2,A
   \   000005   EF           MOV     A,R7
   \   000006   3400         ADDC    A,#0x0
   \   000008   F5..         MOV     ?V0 + 3,A
   \   00000A   EE           MOV     A,R6
   \   00000B   2422         ADD     A,#0x22
   \   00000D   FE           MOV     R6,A
   \   00000E   EF           MOV     A,R7
   \   00000F   3400         ADDC    A,#0x0
   \   000011   FF           MOV     R7,A
   \   000012                ; Setup parameters for call to function HalUARTWrite
   \   000012                ; Setup parameters for call to function HalUARTWrite
   \   000012   85..82       MOV     DPL,?V0 + 2
   \   000015   85..83       MOV     DPH,?V0 + 3
   \   000018   12....       LCALL   ??Subroutine6_0 & 0xFFFF
   \                     ??CrossCallReturnLabel_5:
   \   00001B   8E82         MOV     DPL,R6
   \   00001D   8F83         MOV     DPH,R7
   \   00001F   E0           MOVX    A,@DPTR
   \   000020   FA           MOV     R2,A
   \   000021   A3           INC     DPTR
   \   000022   E0           MOVX    A,@DPTR
   \   000023   FB           MOV     R3,A
   \   000024   7900         MOV     R1,#0x0
   \   000026   22           RET

   \                                 In  segment BANKED_CODE, align 1, keep-with-next
   \                     ?Subroutine5:
   \   000000   8E82         MOV     DPL,R6
   \   000002   8F83         MOV     DPH,R7
   \   000004                REQUIRE ??Subroutine6_0
   \   000004                ; // Fall through to label ??Subroutine6_0

   \                                 In  segment BANKED_CODE, align 1, keep-with-next
   \                     ??Subroutine6_0:
   \   000000   E0           MOVX    A,@DPTR
   \   000001   FC           MOV     R4,A
   \   000002   A3           INC     DPTR
   \   000003   E0           MOVX    A,@DPTR
   \   000004   FD           MOV     R5,A
   \   000005   22           RET
    466          
    467          /*********************************************************************
    468           * @fn      SampleApp_SendPeriodicMessage
    469           *
    470           * @brief   Send the periodic message.
    471           *
    472           * @param   none
    473           *
    474           * @return  none
    475           */

   \                                 In  segment BANKED_CODE, align 1, keep-with-next
    476          void SampleApp_SendPeriodicMessage( void )
   \                     SampleApp_SendPeriodicMessage:
    477          {
   \   000000   74F5         MOV     A,#-0xb
   \   000002   12....       LCALL   ?BANKED_ENTER_XDATA
   \   000005                ; Saved register size: 11
   \   000005                ; Auto size: 12
   \   000005   74F4         MOV     A,#-0xc
   \   000007   12....       LCALL   ?ALLOC_XSTACK8
    478           
    479            char temp[3], humidity[3], str[9];
    480            uint16 GasData = 0;
    481            
    482            DHT11();             //获取温湿度
   \   00000A                ; Setup parameters for call to function DHT11
   \   00000A   12....       LCALL   ??DHT11?relay
    483          
    484            //将温湿度的转换成字符串,供LCD显示  
    485            temp[0] = wendu_shi+0x30;
   \   00000D   90....       MOV     DPTR,#wendu_shi
   \   000010   E0           MOVX    A,@DPTR
   \   000011   2430         ADD     A,#0x30
   \   000013   85..82       MOV     DPL,?XSP + 0
   \   000016   85..83       MOV     DPH,?XSP + 1
   \   000019   F0           MOVX    @DPTR,A
    486            temp[1] = wendu_ge+0x30;
   \   00001A   90....       MOV     DPTR,#wendu_ge
   \   00001D   E0           MOVX    A,@DPTR
   \   00001E   2430         ADD     A,#0x30
   \   000020   C0E0         PUSH    A
   \   000022   7401         MOV     A,#0x1
   \   000024   12....       LCALL   ?XSTACK_DISP0_8
   \   000027   D0E0         POP     A
   \   000029   F0           MOVX    @DPTR,A
    487            temp[2] = '\0';
   \   00002A   7402         MOV     A,#0x2
   \   00002C   12....       LCALL   ?XSTACK_DISP0_8
   \   00002F   E4           CLR     A
   \   000030   F0           MOVX    @DPTR,A
    488            humidity[0] = shidu_shi+0x30;
    489            humidity[1] = shidu_ge+0x30;
    490            humidity[2] = '\0';
    491            
    492            HalUARTWrite(0, "TEM:", 4);
   \   000031                ; Setup parameters for call to function HalUARTWrite
   \   000031   7C04         MOV     R4,#0x4
   \   000033   FD           MOV     R5,A
   \   000034   7A..         MOV     R2,#`?<Constant "TEM:">` & 0xff
   \   000036   7B..         MOV     R3,#(`?<Constant "TEM:">` >> 8) & 0xff
   \   000038   F9           MOV     R1,A
   \   000039   12....       LCALL   ??HalUARTWrite?relay
    493            HalUARTWrite(0, temp, 3);
                                   ^
Warning[Pe167]: argument of type "char *" is incompatible with parameter of
          type "unsigned char *"

    char temp[3], humidity[3], str[9];
                  ^
"D:\zigbee\毕设\lzq\Terminal\Projects\zstack\Samples\SampleApp\Source\SampleApp.c",479  Warning[Pe550]: 
          variable "humidity" was set but never used
   \   00003C                ; Setup parameters for call to function HalUARTWrite
   \   00003C   7C03         MOV     R4,#0x3
   \   00003E   7D00         MOV     R5,#0x0
   \   000040   85..82       MOV     DPL,?XSP + 0
   \   000043   85..83       MOV     DPH,?XSP + 1
   \   000046   AA82         MOV     R2,DPL
   \   000048   AB83         MOV     R3,DPH
   \   00004A   7900         MOV     R1,#0x0
   \   00004C   12....       LCALL   ??HalUARTWrite?relay
    494            HalUARTWrite(0, "\r\n", 2); 
   \   00004F                ; Setup parameters for call to function HalUARTWrite
   \   00004F   7C02         MOV     R4,#0x2
   \   000051   7D00         MOV     R5,#0x0
   \   000053   7A..         MOV     R2,#`?<Constant "\\r\\n">` & 0xff
   \   000055   7B..         MOV     R3,#(`?<Constant "\\r\\n">` >> 8) & 0xff
   \   000057   7900         MOV     R1,#0x0
   \   000059   12....       LCALL   ??HalUARTWrite?relay
    495            
    496            GasData = ReadGasData();
   \   00005C                ; Setup parameters for call to function ReadGasData
   \   00005C   12....       LCALL   ??ReadGasData?relay
   \   00005F   8A..         MOV     ?V0 + 0,R2
   \   000061   8B..         MOV     ?V0 + 1,R3
   \   000063   AE..         MOV     R6,?V0 + 0
   \   000065   AF..         MOV     R7,?V0 + 1
    497            osal_memcpy(str, "MQ2:", 4);
   \   000067                ; Setup parameters for call to function osal_memcpy
   \   000067   75....       MOV     ?V0 + 0,#`?<Constant "MQ2:">` & 0xff
   \   00006A   75....       MOV     ?V0 + 1,#(`?<Constant "MQ2:">` >> 8) & 0xff
   \   00006D   75..00       MOV     ?V0 + 2,#0x0
   \   000070   78..         MOV     R0,#?V0 + 0
   \   000072   12....       LCALL   ?PUSH_XSTACK_I_THREE
   \   000075   7C04         MOV     R4,#0x4
   \   000077   7D00         MOV     R5,#0x0
   \   000079   7406         MOV     A,#0x6
   \   00007B   12....       LCALL   ?XSTACK_DISP0_8
   \   00007E   AA82         MOV     R2,DPL
   \   000080   AB83         MOV     R3,DPH
   \   000082   12....       LCALL   ??osal_memcpy?relay
   \   000085   7403         MOV     A,#0x3
   \   000087   12....       LCALL   ?DEALLOC_XSTACK8
    498            str[4] = GasData / 100 + '0';
   \   00008A   EE           MOV     A,R6
   \   00008B   F8           MOV     R0,A
   \   00008C   EF           MOV     A,R7
   \   00008D   F9           MOV     R1,A
   \   00008E   7A64         MOV     R2,#0x64
   \   000090   7B00         MOV     R3,#0x0
   \   000092   12....       LCALL   ?US_DIV_MOD
   \   000095   E8           MOV     A,R0
   \   000096   2430         ADD     A,#0x30
   \   000098   C0E0         PUSH    A
   \   00009A   7407         MOV     A,#0x7
   \   00009C   12....       LCALL   ?XSTACK_DISP0_8
   \   00009F   D0E0         POP     A
   \   0000A1   12....       LCALL   ?Subroutine4 & 0xFFFF
    499            str[5] = GasData / 10%10 + '0';
   \                     ??CrossCallReturnLabel_2:
   \   0000A4   12....       LCALL   ?US_DIV_MOD
   \   0000A7   7A0A         MOV     R2,#0xa
   \   0000A9   7B00         MOV     R3,#0x0
   \   0000AB   12....       LCALL   ?US_DIV_MOD
   \   0000AE   EA           MOV     A,R2
   \   0000AF   2430         ADD     A,#0x30
   \   0000B1   C0E0         PUSH    A
   \   0000B3   7408         MOV     A,#0x8
   \   0000B5   12....       LCALL   ?XSTACK_DISP0_8
   \   0000B8   D0E0         POP     A
   \   0000BA   12....       LCALL   ?Subroutine4 & 0xFFFF
    500            str[6] = GasData % 10 + '0';
   \                     ??CrossCallReturnLabel_3:
   \   0000BD   12....       LCALL   ?US_DIV_MOD
   \   0000C0   EA           MOV     A,R2
   \   0000C1   2430         ADD     A,#0x30
   \   0000C3   C0E0         PUSH    A
   \   0000C5   7409         MOV     A,#0x9
   \   0000C7   12....       LCALL   ?XSTACK_DISP0_8
   \   0000CA   D0E0         POP     A
   \   0000CC   F0           MOVX    @DPTR,A
    501            str[7] = ' ';  
   \   0000CD   740A         MOV     A,#0xa
   \   0000CF   12....       LCALL   ?XSTACK_DISP0_8
   \   0000D2   7420         MOV     A,#0x20
   \   0000D4   F0           MOVX    @DPTR,A
    502            HalUARTWrite(0, (uint8 *)str, 8);
   \   0000D5                ; Setup parameters for call to function HalUARTWrite
   \   0000D5   7C08         MOV     R4,#0x8
   \   0000D7   7D00         MOV     R5,#0x0
   \   0000D9   7403         MOV     A,#0x3
   \   0000DB   12....       LCALL   ?XSTACK_DISP0_8
   \   0000DE   AA82         MOV     R2,DPL
   \   0000E0   AB83         MOV     R3,DPH
   \   0000E2   7900         MOV     R1,#0x0
   \   0000E4   12....       LCALL   ??HalUARTWrite?relay
    503          #if ZIGBEE_COOR
    504            if ( AF_DataRequest( &SampleApp_Periodic_DstAddr, &SampleApp_epDesc,
    505                                 SAMPLEAPP_COOR,//SAMPLEAPP_PERIODIC_CLUSTERID,
    506                                 15,
    507                                 "lzq Coordinator",
    508                                 &SampleApp_TransID,
    509                                 AF_DISCV_ROUTE,
    510                                 AF_DEFAULT_RADIUS ) == afStatus_SUCCESS )
   \   0000E7                ; Setup parameters for call to function AF_DataRequest
   \   0000E7   75..1E       MOV     ?V0 + 0,#0x1e
   \   0000EA   78..         MOV     R0,#?V0 + 0
   \   0000EC   12....       LCALL   ?PUSH_XSTACK_I_ONE
   \   0000EF   75....       MOV     ?V0 + 0,#SampleApp_TransID & 0xff
   \   0000F2   75....       MOV     ?V0 + 1,#(SampleApp_TransID >> 8) & 0xff
   \   0000F5   78..         MOV     R0,#?V0 + 0
   \   0000F7   12....       LCALL   ?PUSH_XSTACK_I_TWO
   \   0000FA   75....       MOV     ?V0 + 0,#`?<Constant "lzq Coordinator">` & 0xff
   \   0000FD   75....       MOV     ?V0 + 1,#(`?<Constant "lzq Coordinator">` >> 8) & 0xff
   \   000100   78..         MOV     R0,#?V0 + 0
   \   000102   12....       LCALL   ?PUSH_XSTACK_I_TWO
   \   000105   75..0F       MOV     ?V0 + 0,#0xf
   \   000108   75..00       MOV     ?V0 + 1,#0x0
   \   00010B   78..         MOV     R0,#?V0 + 0
   \   00010D   12....       LCALL   ?PUSH_XSTACK_I_TWO
   \   000110   75..06       MOV     ?V0 + 0,#0x6
   \   000113   78..         MOV     R0,#?V0 + 0
   \   000115   12....       LCALL   ?PUSH_XSTACK_I_TWO
   \   000118   7920         MOV     R1,#0x20
   \   00011A   7C..         MOV     R4,#SampleApp_epDesc & 0xff
   \   00011C   7D..         MOV     R5,#(SampleApp_epDesc >> 8) & 0xff
   \   00011E   7A..         MOV     R2,#SampleApp_Periodic_DstAddr & 0xff
   \   000120   7B..         MOV     R3,#(SampleApp_Periodic_DstAddr >> 8) & 0xff
   \   000122   12....       LCALL   ??AF_DataRequest?relay
   \   000125   7409         MOV     A,#0x9
   \   000127   12....       LCALL   ?DEALLOC_XSTACK8
    511            {
    512            }
    513            else
    514            {
    515              // Error occurred in request to send.
    516            }
    517          #endif  
    518            
    519          #if ZIGBEE_ROUTER_ONE   
    520            if ( AF_DataRequest( &SampleApp_Periodic_DstAddr, &SampleApp_epDesc,
    521                                 SAMPLEAPP_TERMINAL_ONE,//SAMPLEAPP_PERIODIC_CLUSTERID,
    522                                 10,
    523                                 "lzq router",
    524                                 &SampleApp_TransID,
    525                                 AF_DISCV_ROUTE,
    526                                 AF_DEFAULT_RADIUS ) == afStatus_SUCCESS )
    527            {
    528            }
    529            else
    530            {
    531              // Error occurred in request to send.
    532            }
    533          #endif  
    534            
    535          #if ZIGBEE_TERMINAL_ONE  
    536            if ( AF_DataRequest( &SampleApp_Periodic_DstAddr, &SampleApp_epDesc,
    537                                 SAMPLEAPP_TERMINAL_ONE,//SAMPLEAPP_PERIODIC_CLUSTERID,
    538                                 2,
    539                                 temp,
    540                                 &SampleApp_TransID,
    541                                 AF_DISCV_ROUTE,
    542                                 AF_DEFAULT_RADIUS ) == afStatus_SUCCESS )
    543            {
    544            }
    545            else
    546            {
    547              // Error occurred in request to send.
    548            }
    549          #endif
    550          #if ZIGBEE_TERMINAL_TWO  
    551            if ( AF_DataRequest( &SampleApp_Periodic_DstAddr, &SampleApp_epDesc,
    552                                 SAMPLEAPP_TERMINAL_TWO,//SAMPLEAPP_PERIODIC_CLUSTERID,
    553                                 2,
    554                                 temp,
    555                                 &SampleApp_TransID,
    556                                 AF_DISCV_ROUTE,
    557                                 AF_DEFAULT_RADIUS ) == afStatus_SUCCESS )
    558            {
    559            }
    560            else
    561            {
    562              // Error occurred in request to send.
    563            }
    564          #endif
    565            
    566          }
   \   00012A   740C         MOV     A,#0xc
   \   00012C   12....       LCALL   ?DEALLOC_XSTACK8
   \   00012F   02....       LJMP    ?Subroutine0 & 0xFFFF

   \                                 In  segment BANKED_CODE, align 1, keep-with-next
   \                     ?Subroutine4:
   \   000000   F0           MOVX    @DPTR,A
   \   000001   EE           MOV     A,R6
   \   000002   F8           MOV     R0,A
   \   000003   EF           MOV     A,R7
   \   000004   F9           MOV     R1,A
   \   000005   7A0A         MOV     R2,#0xa
   \   000007   7B00         MOV     R3,#0x0
   \   000009   22           RET
    567          
    568          /*********************************************************************
    569           * @fn      SampleApp_SendFlashMessage
    570           *
    571           * @brief   Send the flash message to group 1.
    572           *
    573           * @param   flashTime - in milliseconds
    574           *
    575           * @return  none
    576           */

   \                                 In  segment BANKED_CODE, align 1, keep-with-next
    577          void SampleApp_SendFlashMessage( uint16 flashTime )
   \                     SampleApp_SendFlashMessage:
    578          {
   \   000000   74F6         MOV     A,#-0xa
   \   000002   12....       LCALL   ?BANKED_ENTER_XDATA
   \   000005                ; Saved register size: 10
   \   000005                ; Auto size: 3
   \   000005   74FD         MOV     A,#-0x3
   \   000007   12....       LCALL   ?ALLOC_XSTACK8
    579            uint8 buffer[3];
    580            buffer[0] = (uint8)(SampleAppFlashCounter++);
   \   00000A   90....       MOV     DPTR,#SampleAppFlashCounter
   \   00000D   E0           MOVX    A,@DPTR
   \   00000E   85..82       MOV     DPL,?XSP + 0
   \   000011   85..83       MOV     DPH,?XSP + 1
   \   000014   F0           MOVX    @DPTR,A
   \   000015   90....       MOV     DPTR,#SampleAppFlashCounter
   \   000018   E0           MOVX    A,@DPTR
   \   000019   04           INC     A
   \   00001A   F0           MOVX    @DPTR,A
    581            buffer[1] = LO_UINT16( flashTime );
   \   00001B   7401         MOV     A,#0x1
   \   00001D   12....       LCALL   ?XSTACK_DISP0_8
   \   000020   EA           MOV     A,R2
   \   000021   F0           MOVX    @DPTR,A
    582            buffer[2] = HI_UINT16( flashTime );
   \   000022   7402         MOV     A,#0x2
   \   000024   12....       LCALL   ?XSTACK_DISP0_8
   \   000027   EB           MOV     A,R3
   \   000028   F0           MOVX    @DPTR,A
    583          
    584            if ( AF_DataRequest( &SampleApp_Flash_DstAddr, &SampleApp_epDesc,
    585                                 SAMPLEAPP_FLASH_CLUSTERID,
    586                                 3,
    587                                 buffer,
    588                                 &SampleApp_TransID,
    589                                 AF_DISCV_ROUTE,
    590                                 AF_DEFAULT_RADIUS ) == afStatus_SUCCESS )
   \   000029                ; Setup parameters for call to function AF_DataRequest
   \   000029   75..1E       MOV     ?V0 + 0,#0x1e
   \   00002C   78..         MOV     R0,#?V0 + 0
   \   00002E   12....       LCALL   ?PUSH_XSTACK_I_ONE
   \   000031   75....       MOV     ?V0 + 0,#SampleApp_TransID & 0xff
   \   000034   75....       MOV     ?V0 + 1,#(SampleApp_TransID >> 8) & 0xff
   \   000037   78..         MOV     R0,#?V0 + 0
   \   000039   12....       LCALL   ?PUSH_XSTACK_I_TWO
   \   00003C   7403         MOV     A,#0x3
   \   00003E   12....       LCALL   ?XSTACK_DISP0_8
   \   000041   8582..       MOV     ?V0 + 0,DPL
   \   000044   8583..       MOV     ?V0 + 1,DPH
   \   000047   78..         MOV     R0,#?V0 + 0
   \   000049   12....       LCALL   ?PUSH_XSTACK_I_TWO
   \   00004C   75..03       MOV     ?V0 + 0,#0x3
   \   00004F   75..00       MOV     ?V0 + 1,#0x0
   \   000052   78..         MOV     R0,#?V0 + 0
   \   000054   12....       LCALL   ?PUSH_XSTACK_I_TWO
   \   000057   75..02       MOV     ?V0 + 0,#0x2
   \   00005A   78..         MOV     R0,#?V0 + 0
   \   00005C   12....       LCALL   ?PUSH_XSTACK_I_TWO
   \   00005F   7920         MOV     R1,#0x20
   \   000061   7C..         MOV     R4,#SampleApp_epDesc & 0xff
   \   000063   7D..         MOV     R5,#(SampleApp_epDesc >> 8) & 0xff
   \   000065   7A..         MOV     R2,#SampleApp_Flash_DstAddr & 0xff
   \   000067   7B..         MOV     R3,#(SampleApp_Flash_DstAddr >> 8) & 0xff
   \   000069   12....       LCALL   ??AF_DataRequest?relay
   \   00006C   7409         MOV     A,#0x9
   \   00006E   12....       LCALL   ?DEALLOC_XSTACK8
    591            {
    592            }
    593            else
    594            {
    595              // Error occurred in request to send.
    596            }
    597          }
   \   000071   7403         MOV     A,#0x3
   \   000073   12....       LCALL   ?DEALLOC_XSTACK8
   \   000076   02....       LJMP    ?Subroutine2 & 0xFFFF

   \                                 In  segment XDATA_ID, align 1, keep-with-next
   \                     `?<Initializer for AppTitle>`:
   \   000000   414C4420     DB "ALD Broadcast"
   \            42726F61
   \            64636173
   \            7400    

   \                                 In  segment BANK_RELAYS, align 1
   \                     ??SampleApp_Init?relay:
   \   000000   12....       LCALL   ?BDISPATCH
   \   000003   ......       DC24    SampleApp_Init

   \                                 In  segment BANK_RELAYS, align 1
   \                     ??SampleApp_ProcessEvent?relay:
   \   000000   12....       LCALL   ?BDISPATCH
   \   000003   ......       DC24    SampleApp_ProcessEvent

   \                                 In  segment BANK_RELAYS, align 1
   \                     ??SampleApp_HandleKeys?relay:
   \   000000   12....       LCALL   ?BDISPATCH
   \   000003   ......       DC24    SampleApp_HandleKeys

   \                                 In  segment BANK_RELAYS, align 1
   \                     ??SampleApp_MessageMSGCB?relay:
   \   000000   12....       LCALL   ?BDISPATCH
   \   000003   ......       DC24    SampleApp_MessageMSGCB

   \                                 In  segment BANK_RELAYS, align 1
   \                     ??SampleApp_SendPeriodicMessage?relay:
   \   000000   12....       LCALL   ?BDISPATCH
   \   000003   ......       DC24    SampleApp_SendPeriodicMessage

   \                                 In  segment BANK_RELAYS, align 1
   \                     ??SampleApp_SendFlashMessage?relay:
   \   000000   12....       LCALL   ?BDISPATCH
   \   000003   ......       DC24    SampleApp_SendFlashMessage

   \                                 In  segment XDATA_ROM_C, align 1
   \                     `?<Constant "UartInit OK\\n">`:
   \   000000   55617274     DB "UartInit OK\012"
   \            496E6974
   \            204F4B0A
   \            00      

   \                                 In  segment XDATA_ROM_C, align 1
   \                     `?<Constant "Group 1">`:
   \   000000   47726F75     DB "Group 1"
   \            70203100

   \                                 In  segment XDATA_ROM_C, align 1
   \                     `?<Constant "lzq">`:
   \   000000   6C7A7100     DB "lzq"

   \                                 In  segment XDATA_ROM_C, align 1
   \                     `?<Constant "Rx Router one:">`:
   \   000000   52782052     DB "Rx Router one:"
   \            6F757465
   \            72206F6E
   \            653A00  

   \                                 In  segment XDATA_ROM_C, align 1
   \                     `?<Constant "\\n">`:
   \   000000   0A00         DB "\012"

   \                                 In  segment XDATA_ROM_C, align 1
   \                     `?<Constant "Rx Terminal one:">`:
   \   000000   52782054     DB "Rx Terminal one:"
   \            65726D69
   \            6E616C20
   \            6F6E653A
   \            00      

   \                                 In  segment XDATA_ROM_C, align 1
   \                     `?<Constant "\\r\\n">`:
   \   000000   0D0A00       DB "\015\012"

   \                                 In  segment XDATA_ROM_C, align 1
   \                     `?<Constant "temp1:">`:
   \   000000   74656D70     DB "temp1:"
   \            313A00  

   \                                 In  segment XDATA_ROM_C, align 1
   \                     `?<Constant "Rx Terminal two:">`:
   \   000000   52782054     DB "Rx Terminal two:"
   \            65726D69
   \            6E616C20
   \            74776F3A
   \            00      

   \                                 In  segment XDATA_ROM_C, align 1
   \                     `?<Constant "temp2:">`:
   \   000000   74656D70     DB "temp2:"
   \            323A00  

   \                                 In  segment XDATA_ROM_C, align 1
   \                     `?<Constant "TEM:">`:
   \   000000   54454D3A     DB "TEM:"
   \            00      

   \                                 In  segment XDATA_ROM_C, align 1
   \                     `?<Constant "MQ2:">`:
   \   000000   4D51323A     DB "MQ2:"
   \            00      

   \                                 In  segment XDATA_ROM_C, align 1
   \                     `?<Constant "lzq Coordinator">`:
   \   000000   6C7A7120     DB "lzq Coordinator"
   \            436F6F72
   \            64696E61
   \            746F7200
    598          /*********************************************************************
    599          *********************************************************************/

   Maximum stack usage in bytes:

   ISTACK PSTACK XSTACK Function
   ------ ------ ------ --------
       0      0     22  SampleApp_HandleKeys
                          0 0 10 -> SampleApp_SendFlashMessage
                          0 0 10 -> aps_AddGroup
                          0 0 10 -> aps_FindGroup
                          0 0 10 -> aps_RemoveGroup
       0      0     14  SampleApp_Init
                          0 0 11 -> HalUARTWrite
                          0 0 11 -> LCD_P8x16Str
                          0 0 11 -> MT_UartInit
                          0 0 11 -> MT_UartRegisterTaskID
                          0 0 11 -> RegisterForKeys
                          0 0 11 -> afRegister
                          0 0 11 -> aps_AddGroup
                          0 0 14 -> osal_memcpy
       0      0     32  SampleApp_MessageMSGCB
                          0 0 18 -> HalLedBlink
                          0 0 18 -> HalUARTWrite
                          0 0 20 -> memcpy
       0      0     12  SampleApp_ProcessEvent
                          0 0 12 -> SampleApp_HandleKeys
                          0 0 12 -> SampleApp_MessageMSGCB
                          0 0 12 -> SampleApp_SendPeriodicMessage
                          0 0 12 -> osal_msg_deallocate
                          0 0 12 -> osal_msg_receive
                          0 0 12 -> osal_rand
                          0 0 12 -> osal_start_timerEx
       1      0     32  SampleApp_SendFlashMessage
                          0 0 22 -> AF_DataRequest
       1      0     44  SampleApp_SendPeriodicMessage
                          0 0 32 -> AF_DataRequest
                          0 0 23 -> DHT11
                          0 0 23 -> HalUARTWrite
                          0 0 23 -> ReadGasData
                          0 0 26 -> osal_memcpy


   Segment part sizes:

   Bytes  Function/Label
   -----  --------------
       8  ?<Constant "Group 1">
       5  ?<Constant "MQ2:">
      15  ?<Constant "Rx Router one:">
      17  ?<Constant "Rx Terminal one:">
      17  ?<Constant "Rx Terminal two:">
       5  ?<Constant "TEM:">
      13  ?<Constant "UartInit OK\n">
       2  ?<Constant "\n">
       3  ?<Constant "\r\n">
      16  ?<Constant "lzq Coordinator">
       4  ?<Constant "lzq">
       7  ?<Constant "temp1:">
       7  ?<Constant "temp2:">
      14  ?<Initializer for AppTitle>
       6  ??SampleApp_HandleKeys?relay
       6  ??SampleApp_Init?relay
       6  ??SampleApp_MessageMSGCB?relay
       6  ??SampleApp_ProcessEvent?relay
       6  ??SampleApp_SendFlashMessage?relay
       6  ??SampleApp_SendPeriodicMessage?relay
       6  ??Subroutine6_0
       5  ?Subroutine0
       5  ?Subroutine1
       5  ?Subroutine2
      39  ?Subroutine3
      10  ?Subroutine4
       4  ?Subroutine5
      14  AppTitle
       1  P0DIR
       1  P0SEL
       1  SampleAppFlashCounter
       1  SampleAppPeriodicCounter
       4  SampleApp_ClusterList
      12  SampleApp_Flash_DstAddr
      18  SampleApp_Group
      59  SampleApp_HandleKeys
     184  SampleApp_Init
     390  SampleApp_MessageMSGCB
       1  SampleApp_NwkState
      12  SampleApp_Periodic_DstAddr
     176  SampleApp_ProcessEvent
     121  SampleApp_SendFlashMessage
     306  SampleApp_SendPeriodicMessage
      12  SampleApp_SimpleDesc
       1  SampleApp_TaskID
       1  SampleApp_TransID
       6  SampleApp_epDesc

 
 1 310 bytes in segment BANKED_CODE
    36 bytes in segment BANK_RELAYS
     2 bytes in segment SFR_AN
    14 bytes in segment XDATA_I
    14 bytes in segment XDATA_ID
   135 bytes in segment XDATA_ROM_C
    53 bytes in segment XDATA_Z
 
 1 360 bytes of CODE  memory
   135 bytes of CONST memory
     0 bytes of DATA  memory (+ 2 bytes shared)
    67 bytes of XDATA memory

Errors: none
Warnings: 4
